     1                                  ; ****************************************************************************
     2                                  ; PLAYMUS1.S (for MSDOS)
     3                                  ; ----------------------------------------------------------------------------
     4                                  ; PLAYMUS1.COM !  NASM version by Erdogan TAN
     5                                  ;
     6                                  ; 09/04/2017
     7                                  ;
     8                                  ; [ Last Modification: 09/04/2017 ]
     9                                  ;
    10                                  ; Derived from source code of 'PLAYMUS1.ASM' by BUGSY of OBSESSION
    11                                  ;          PLAYMUS2.EXE	(MSDOS), 1997
    12                                  ;
    13                                  ; Assembler: NASM 2.11
    14                                  ; ****************************************************************************
    15                                  
    16                                  ; 01/01/1997
    17                                  ; .sng player (adlib)
    18                                  ; ------------------------------------------
    19                                  ; A program to play raw adlib music used in
    20                                  ; many demo's. INCLUDE FULLY SOURCE !!
    21                                  ; 1 pascal player + loader for *.sng files
    22                                  ; 2 asm players, playes the music from a SEG
    23                                  ; 2 songs, (Cool tunes) ripped !
    24                                  ; All code by BUGSY of OBSESSION  FREEWARE
    25                                  ; ------------------------------------------
    26                                  ; 1994
    27                                  
    28                                  [BITS 16] ; x86 Real Mode (16 bit) intructions
    29                                  
    30                                  [ORG 100h] 
    31                                  
    32                                  Start:
    33 00000000 BA[0601]                        mov     dx, prg_msg
    34 00000003 B409                            mov     ah, 9
    35 00000005 CD21                            int     21h
    36                                  
    37                                  Init:
    38 00000007 E82700                  	Call    InitAdlib
    39                                  
    40 0000000A FC                      	cld
    41 0000000B B91400                  	Mov	cx, 20
    42                                  WaitABit:
    43 0000000E E8E400                  	Call	WaitRetrace
    44 00000011 E2FB                    	Loop	WaitABit
    45                                  
    46                                  NoKeyPressed:
    47 00000013 E8A800                  	Call    PlayNote
    48                                  
    49 00000016 E8DC00                  	Call	WaitRetrace
    50                                  
    51 00000019 B401                    	Mov     ah, 01
    52 0000001B CD16                    	Int     16h
    53 0000001D 74F4                    	Jz      short NoKeyPressed
    54                                  
    55 0000001F B400                    	Mov	ah, 00
    56 00000021 CD16                    	Int	16h
    57 00000023 3C1B                    	Cmp	al, 27	; ESC
    58 00000025 75EC                    	Jne	short NoKeyPressed
    59                                  
    60 00000027 E80700                  	Call	InitAdlib
    61                                  
    62 0000002A B8004C                  	Mov     ax, 4C00h
    63 0000002D CD21                    	Int     21h
    64                                  
    65                                  here:
    66 0000002F EBFE                    	jmp	short here
    67                                  
    68                                  InitAdlib:
    69 00000031 B9F000                  	Mov	cx, 0F0h
    70 00000034 B80010                  	Mov	ax, 1000h
    71                                  Loop_1:
    72 00000037 E85000                  	Call	OutAdlib
    73 0000003A FEC4                    	Inc	ah
    74 0000003C E2F9                    	Loop	Loop_1
    75                                  
    76 0000003E B92000                  	Mov	cx, 20h
    77 00000041 B83F40                  	Mov	ax, 403Fh
    78                                  Loop_2:
    79 00000044 E84300                  	Call	OutAdlib
    80 00000047 FEC4                    	Inc	ah
    81 00000049 E2F9                    	Loop	Loop_2
    82                                  
    83 0000004B B9A000                  	Mov	cx, 0A0h
    84 0000004E B80060                  	Mov	ax, 6000h
    85                                  Loop_3:
    86 00000051 E83600                  	Call	OutAdlib
    87 00000054 FEC4                    	Inc	ah
    88 00000056 E2F9                    	Loop	Loop_3
    89                                  
    90 00000058 B82001                  	Mov	ax, 120h
    91 0000005B E82C00                  	Call	OutAdlib
    92                                  
    93 0000005E B80008                  	Mov	ax, 0800h
    94 00000061 E82600                  	Call	OutAdlib
    95                                  
    96 00000064 B800BD                  	Mov	ax, 0BD00h
    97 00000067 E82000                  	Call	OutAdlib
    98                                  
    99 0000006A B90900                  	Mov	cx, 9
   100 0000006D 31FF                    	Xor	di, di
   101                                  
   102                                  Loop_4:
   103 0000006F 51                      	Push	cx
   104 00000070 31C0                    	Xor	ax, ax
   105 00000072 89FB                    	Mov	bx, di
   106 00000074 88E7                    	Mov	bh, ah
   107 00000076 B4A0                    	Mov	ah, 0A0h
   108 00000078 00DC                    	Add	ah, bl
   109 0000007A E80D00                  	Call	OutAdlib
   110                                  
   111 0000007D 88F8                    	Mov	al, bh
   112 0000007F 80C410                  	Add	ah, 10h
   113 00000082 E80500                  	Call	OutAdlib
   114                                  
   115 00000085 47                      	Inc	di
   116 00000086 59                      	Pop	cx
   117 00000087 E2E6                    	Loop	Loop_4
   118                                  
   119 00000089 C3                      	Retn
   120                                  
   121                                  OutAdlib:
   122 0000008A 50                      	Push	ax
   123 0000008B 52                      	Push	dx
   124 0000008C BA8803                  	Mov	dx, 388h
   125 0000008F 86C4                    	Xchg	al, ah
   126 00000091 EE                      	Out	dx, al
   127 00000092 42                      	Inc	dx
   128 00000093 EC                      	In	al, dx
   129 00000094 EC                      	In	al, dx
   130 00000095 EC                      	In	al, dx
   131 00000096 EC                      	In	al, dx
   132 00000097 EC                      	In	al, dx
   133 00000098 EC                      	In	al, dx
   134 00000099 EC                      	In	al, dx
   135 0000009A 88E0                    	Mov	al, ah
   136 0000009C EE                      	Out	dx, al
   137 0000009D EC                      	In	al, dx
   138 0000009E EC                      	In	al, dx
   139 0000009F EC                      	In	al, dx
   140 000000A0 EC                      	In	al, dx
   141 000000A1 EC                      	In	al, dx
   142 000000A2 EC                      	In	al, dx
   143 000000A3 EC                      	In	al, dx
   144 000000A4 EC                      	In	al, dx
   145 000000A5 EC                      	In	al, dx
   146 000000A6 EC                      	In	al, dx
   147 000000A7 EC                      	In	al, dx
   148 000000A8 EC                      	In	al, dx
   149 000000A9 EC                      	In	al, dx
   150 000000AA EC                      	In	al, dx
   151 000000AB EC                      	In	al, dx
   152 000000AC EC                      	In	al, dx
   153 000000AD EC                      	In	al, dx
   154 000000AE EC                      	In	al, dx
   155 000000AF EC                      	In	al, dx
   156 000000B0 EC                      	In	al, dx
   157 000000B1 EC                      	In	al, dx
   158 000000B2 EC                      	In	al, dx
   159 000000B3 EC                      	In	al, dx
   160 000000B4 EC                      	In	al, dx
   161 000000B5 EC                      	In	al, dx
   162 000000B6 EC                      	In	al, dx
   163 000000B7 EC                      	In	al, dx
   164 000000B8 EC                      	In	al, dx
   165 000000B9 EC                      	In	al, dx
   166 000000BA EC                      	In	al, dx
   167 000000BB 5A                      	Pop     dx
   168 000000BC 58                      	Pop     ax
   169 000000BD C3                      	Retn
   170                                  
   171                                  PlayNote:
   172 000000BE 50                      	Push	ax
   173 000000BF 53                      	Push	bx
   174                                  
   175 000000C0 FE0E[0501]              	Dec	byte [DelayCt]
   176 000000C4 803E[0501]00            	Cmp	byte [DelayCt], 0
   177 000000C9 7522                    	Jne	short DelayNOTDone
   178 000000CB 8B1E[0301]              	Mov	bx, [NotePos]
   179                                  NextCommand:
   180 000000CF 8B87[2F01]              	Mov	ax, [bx+mus1]
   181 000000D3 83C302                  	Add	bx, 2
   182 000000D6 81FB43A1                	Cmp	bx, SongLength
   183 000000DA 7314                    	Jae	short SongDone
   184 000000DC 80FC00                  	Cmp	ah, 0
   185 000000DF 7405                    	Je	short RowDone
   186 000000E1 E8A6FF                  	Call	OutAdlib
   187 000000E4 EBE9                    	Jmp	short NextCommand
   188                                  RowDone:
   189 000000E6 A2[0501]                	Mov	[DelayCt], al
   190 000000E9 891E[0301]              	Mov	[NotePos], bx
   191                                  DelayNOTDone:
   192 000000ED 5B                      	Pop	bx
   193 000000EE 58                      	Pop	ax
   194 000000EF C3                      	Retn
   195                                  SongDone:
   196 000000F0 BB6401                  	Mov	bx, SongLoopStart
   197 000000F3 EBDA                    	Jmp	short NextCommand
   198                                  
   199                                  WaitRetrace:
   200 000000F5 BADA03                  	Mov	dx, 3DAh
   201                                  NoRetrace:
   202 000000F8 EC                      	In	al, dx
   203 000000F9 A808                    	Test	al, 8
   204 000000FB 74FB                    	Jz	NoRetrace
   205                                  
   206                                  TestRetrace:
   207 000000FD EC                      	In	al, dx
   208 000000FE A808                    	test	al, 8
   209 00000100 75FB                    	jnz	TestRetrace
   210                                  		
   211 00000102 C3                      	Retn
   212                                  
   213                                  
   214                                  SongLength      EQU     0A13Bh+8
   215                                  SongLoopStart   EQU     015Ch+8
   216 00000103 0C00                    NotePos		dw	12
   217 00000105 32                      DelayCt		db	50
   218                                  
   219                                  prg_msg:
   220 00000106 4552444F47414E2054-     	db	'ERDOGAN TAN - PLAYMUS1.COM'
   220 0000010F 414E202D20504C4159-
   220 00000118 4D5553312E434F4D   
   221 00000120 0D0A                    	db	0Dh, 0Ah
   222 00000122 30392F30342F323031-     	db	'09/04/2017'
   222 0000012B 37                 
   223 0000012C 0D0A                    	db	0Dh, 0Ah
   224 0000012E 24                      	db	"$" 
   225                                  
   226                                  ; %include 'PLAYMUS1.INC'
   227                                  
   228                                  mus1:
   229 0000012F 4F62734D3BA104005C-          DB 79,98,115,77,59,161,4,0,92,1,50,1,65,32,194,35,6,64,0,67
   229 00000138 0132014120C2230640-
   229 00000141 0043               
   230 00000143 2360F263F080F08301-          DB 35,96,242,99,240,128,240,131,1,224,4,192,65,33,194,36,6,65,0,68
   230 0000014C E004C04121C2240641-
   230 00000155 0044               
   231 00000157 2361F264F081F08401-          DB 35,97,242,100,240,129,240,132,1,225,4,193,65,34,194,37,6,66,0,69
   231 00000160 E104C14122C2250642-
   231 00000169 0045               
   232 0000016B 2362F265F082F08501-          DB 35,98,242,101,240,130,240,133,1,226,4,194,65,40,194,43,6,72,0,75
   232 00000174 E204C24128C22B0648-
   232 0000017D 004B               
   233 0000017F 2368F26BF088F08B01-          DB 35,104,242,107,240,136,240,139,1,232,4,195,65,41,194,44,6,73,0,76
   233 00000188 E804C34129C22C0649-
   233 00000191 004C               
   234 00000193 2369F26CF089F08C01-          DB 35,105,242,108,240,137,240,140,1,233,4,196,65,42,194,45,6,74,0,77
   234 0000019C E904C4412AC22D064A-
   234 000001A5 004D               
   235 000001A7 236AF26DF08AF08D01-          DB 35,106,242,109,240,138,240,141,1,234,4,197,65,48,194,51,6,80,0,83
   235 000001B0 EA04C54130C2330650-
   235 000001B9 0053               
   236 000001BB 2370F273F090F09301-          DB 35,112,242,115,240,144,240,147,1,240,4,198,65,49,194,52,6,81,0,84
   236 000001C4 F004C64131C2340651-
   236 000001CD 0054               
   237 000001CF 2371F274F091F09401-          DB 35,113,242,116,240,145,240,148,1,241,4,199,65,50,194,53,6,82,0,85
   237 000001D8 F104C74132C2350652-
   237 000001E1 0055               
   238 000001E3 2372F275F092F09501-          DB 35,114,242,117,240,146,240,149,1,242,4,200,167,160,10,176,42,176,4,67
   238 000001EC F204C8A7A00AB02AB0-
   238 000001F5 0443               
   239 000001F7 A7A10AB12AB13F44A7-          DB 167,161,10,177,42,177,63,68,167,162,10,178,42,178,63,69,167,163,10,179
   239 00000200 A20AB22AB23F45A7A3-
   239 00000209 0AB3               
   240 0000020B 2AB33F4BA7A40AB42A-          DB 42,179,63,75,167,164,10,180,42,180,63,76,167,165,10,181,42,181,63,77
   240 00000214 B43F4CA7A50AB52AB5-
   240 0000021D 3F4D               
   241 0000021F A7A60AB62AB63F53A7-          DB 167,166,10,182,42,182,63,83,167,167,10,183,42,183,63,84,167,168,10,184
   241 00000228 A70AB72AB73F54A7A8-
   241 00000231 0AB8               
   242 00000233 2AB83F551000FDA10B-          DB 42,184,63,85,16,0,253,161,11,177,43,177,4,68,16,0,168,162,14,178
   242 0000023C B12BB104441000A8A2-
   242 00000245 0EB2               
   243 00000247 2EB204451000FDA307-          DB 46,178,4,69,16,0,253,163,7,179,39,179,4,75,16,0,251,160,14,176
   243 00000250 B327B3044B1000FBA0-
   243 00000259 0EB0               
   244 0000025B 2EB021000FB12FB120-          DB 46,176,33,0,15,177,47,177,32,0,1,32,67,35,64,64,0,67,242,96
   244 00000264 000120432340400043-
   244 0000026D F260               
   245 0000026F F363508002E001E30A-          DB 243,99,80,128,2,224,1,227,10,192,168,160,14,176,46,176,3,67,90,162
   245 00000278 C0A8A00EB02EB00343-
   245 00000281 5AA2               
   246 00000283 0FB22FB2A7A30AB32A-          DB 15,178,47,178,167,163,10,179,42,179,120,0,120,0,54,0,0,32,0,35
   246 0000028C B37800780036000020-
   246 00000295 0023               
   247 00000297 08400043F860F46326-          DB 8,64,0,67,248,96,244,99,38,128,71,131,0,227,4,192,0,33,0,36
   247 000002A0 80478300E304C00021-
   247 000002A9 0024               
   248 000002AB C0410044F861D2641F-          DB 192,65,0,68,248,97,210,100,31,132,0,225,10,193,84,34,208,37,0,66
   248 000002B4 8400E10AC15422D025-
   248 000002BD 0042               
   249 000002BF 0245F362F565FF827F-          DB 2,69,243,98,245,101,255,130,127,133,0,226,14,194,15,40,0,43,0,72
   249 000002C8 8500E20EC20F28002B-
   249 000002D1 0048               
   250 000002D3 404BF768E76B00E803-          DB 64,75,247,104,231,107,0,232,3,235,8,195,15,41,0,44,0,73,64,76
   250 000002DC EB08C30F29002C0049-
   250 000002E5 404C               
   251 000002E7 F769E76C00E903EC08-          DB 247,105,231,108,0,233,3,236,8,196,14,176,46,176,8,67,167,161,10,177
   251 000002F0 C40EB02EB00843A7A1-
   251 000002F9 0AB1               
   252 000002FB 2AB1A7A20AB22AB206-          DB 42,177,167,162,10,178,42,178,6,179,38,179,10,180,42,180,3,0,72,76
   252 00000304 B326B30AB42AB40300-
   252 0000030D 484C               
   253 0000030F 0AB42AB44C4C03000E-          DB 10,180,42,180,76,76,3,0,14,176,46,176,33,67,10,177,42,177,33,68
   253 00000318 B02EB021430AB12AB1-
   253 00000321 2144               
   254 00000323 0AB22AB2184506B326-          DB 10,178,42,178,24,69,6,179,38,179,87,75,10,180,42,180,3,0,10,180
   254 0000032C B3574B0AB42AB40300-
   254 00000335 0AB4               
   255 00000337 2AB404004020452380-          DB 42,180,4,0,64,32,69,35,128,64,0,67,130,96,240,128,26,131,3,224
   255 00000340 4000438260F0801A83-
   255 00000349 03E0               
   256 0000034B 01E3012406410044FF-          DB 1,227,1,36,6,65,0,68,255,97,229,100,35,129,240,132,1,225,0,193
   256 00000354 61E5642381F08401E1-
   256 0000035D 00C1               
   257 0000035F 00220025C0420045F8-          DB 0,34,0,37,192,66,0,69,248,98,210,101,240,130,31,133,10,194,80,41
   257 00000368 62D265F0821F850AC2-
   257 00000371 5029               
   258 00000373 402C004CF269F66C52-          DB 64,44,0,76,242,105,246,108,82,137,22,140,3,233,0,236,14,196,84,42
   258 0000037C 89168C03E900EC0EC4-
   258 00000385 542A               
   259 00000387 D02D004A024DF36AF5-          DB 208,45,0,74,2,77,243,106,245,109,255,138,127,141,0,234,14,197,0,49
   259 00000390 6DFF8A7F8D00EA0EC5-
   259 00000399 0031               
   260 0000039B 003408510054F871F4-          DB 0,52,8,81,0,84,248,113,244,116,38,145,71,148,2,241,90,160,7,176
   260 000003A4 742691479402F15AA0-
   260 000003AD 07B0               
   261 000003AF 27B05AA107B127B10A-          DB 39,176,90,161,7,177,39,177,10,178,42,178,10,179,42,179,64,75,90,164
   261 000003B8 B22AB20AB32AB3404B-
   261 000003C1 5AA4               
   262 000003C3 0FB42FB45AA50FB52F-          DB 15,180,47,180,90,165,15,181,47,181,141,166,7,182,39,182,4,83,90,167
   262 000003CC B58DA607B627B60453-
   262 000003D5 5AA7               
   263 000003D7 0BB72BB70854A8A812-          DB 11,183,43,183,8,84,168,168,18,184,50,184,6,0,72,75,141,160,7,176
   263 000003E0 B832B80600484B8DA0-
   263 000003E9 07B0               
   264 000003EB 27B00D438DA107B127-          DB 39,176,13,67,141,161,7,177,39,177,13,68,10,179,42,179,76,75,90,166
   264 000003F4 B10D440AB32AB34C4B-
   264 000003FD 5AA6               
   265 000003FF 07B627B6215306005A-          DB 7,182,39,182,33,83,6,0,90,160,7,176,39,176,0,67,90,161,7,177
   265 00000408 A007B027B000435AA1-
   265 00000411 07B1               
   266 00000413 27B100440AB32AB307-          DB 39,177,0,68,10,179,42,179,7,182,39,182,8,83,6,0,7,176,39,176
   266 0000041C B627B60853060007B0-
   266 00000425 27B0               
   267 00000427 0D4307B127B10D440A-          DB 13,67,7,177,39,177,13,68,10,179,42,179,7,182,39,182,33,83,6,0
   267 00000430 B32AB307B627B62153-
   267 00000439 0600               
   268 0000043B 404B0BB02BB000430B-          DB 64,75,11,176,43,176,0,67,11,177,43,177,0,68,10,178,42,178,3,69
   268 00000444 B12BB100440AB22AB2-
   268 0000044D 0345               
   269 0000044F 0AB32AB307B627B608-          DB 10,179,42,179,7,182,39,182,8,83,6,0,72,75,7,176,39,176,13,67
   269 00000458 530600484B07B027B0-
   269 00000461 0D43               
   270 00000463 07B127B10D440AB32A-          DB 7,177,39,177,13,68,10,179,42,179,76,75,7,182,39,182,33,83,6,0
   270 0000046C B34C4B07B627B62153-
   270 00000475 0600               
   271 00000477 07B027B0004307B127-          DB 7,176,39,176,0,67,7,177,39,177,0,68,10,179,42,179,7,182,39,182
   271 00000480 B100440AB32AB307B6-
   271 00000489 27B6               
   272 0000048B 085306000BB02BB00D-          DB 8,83,6,0,11,176,43,176,13,67,11,177,43,177,13,68,10,179,42,179
   272 00000494 430BB12BB10D440AB3-
   272 0000049D 2AB3               
   273 0000049F 07B627B62153060040-          DB 7,182,39,182,33,83,6,0,64,75,11,176,43,176,0,67,7,177,39,177
   273 000004A8 4B0BB02BB0004307B1-
   273 000004B1 27B1               
   274 000004B3 00440AB22AB200450A-          DB 0,68,10,178,42,178,0,69,10,179,42,179,7,182,39,182,8,83,6,0
   274 000004BC B32AB307B627B60853-
   274 000004C5 0600               
   275 000004C7 484B0BB02BB00D4307-          DB 72,75,11,176,43,176,13,67,7,177,39,177,13,68,10,179,42,179,76,75
   275 000004D0 B127B10D440AB32AB3-
   275 000004D9 4C4B               
   276 000004DB 07B627B6215306000F-          DB 7,182,39,182,33,83,6,0,15,176,47,176,0,67,11,177,43,177,0,68
   276 000004E4 B02FB000430BB12BB1-
   276 000004ED 0044               
   277 000004EF 0AB32AB307B627B608-          DB 10,179,42,179,7,182,39,182,8,83,6,0,11,176,43,176,13,67,7,177
   277 000004F8 5306000BB02BB00D43-
   277 00000501 07B1               
   278 00000503 27B10D440AB32AB307-          DB 39,177,13,68,10,179,42,179,7,182,39,182,33,83,6,0,64,75,11,176
   278 0000050C B627B621530600404B-
   278 00000515 0BB0               
   279 00000517 2BB0004307B127B100-          DB 43,176,0,67,7,177,39,177,0,68,10,178,42,178,3,69,10,179,42,179
   279 00000520 440AB22AB203450AB3-
   279 00000529 2AB3               
   280 0000052B 07B627B60853060048-          DB 7,182,39,182,8,83,6,0,72,75,15,176,47,176,13,67,11,177,43,177
   280 00000534 4B0FB02FB00D430BB1-
   280 0000053D 2BB1               
   281 0000053F 0D440AB32AB34C4B07-          DB 13,68,10,179,42,179,76,75,7,182,39,182,33,83,6,0,11,176,43,176
   281 00000548 B627B6215306000BB0-
   281 00000551 2BB0               
   282 00000553 004307B127B100440A-          DB 0,67,7,177,39,177,0,68,10,179,42,179,7,182,39,182,8,83,6,0
   282 0000055C B32AB307B627B60853-
   282 00000565 0600               
   283 00000567 0BB02BB00D4307B127-          DB 11,176,43,176,13,67,7,177,39,177,13,68,10,179,42,179,7,182,39,182
   283 00000570 B10D440AB32AB307B6-
   283 00000579 27B6               
   284 0000057B 2B530600404B0BB02B-          DB 43,83,6,0,64,75,11,176,43,176,0,67,11,177,43,177,0,68,10,178
   284 00000584 B000430BB12BB10044-
   284 0000058D 0AB2               
   285 0000058F 2AB200450AB32AB38D-          DB 42,178,0,69,10,179,42,179,141,166,7,182,39,182,4,83,6,0,72,75
   285 00000598 A607B627B604530600-
   285 000005A1 484B               
   286 000005A3 07B027B00D4307B127-          DB 7,176,39,176,13,67,7,177,39,177,13,68,10,179,42,179,76,75,90,166
   286 000005AC B10D440AB32AB34C4B-
   286 000005B5 5AA6               
   287 000005B7 07B627B62153060007-          DB 7,182,39,182,33,83,6,0,7,176,39,176,0,67,7,177,39,177,0,68
   287 000005C0 B027B0004307B127B1-
   287 000005C9 0044               
   288 000005CB 0AB32AB307B627B608-          DB 10,179,42,179,7,182,39,182,8,83,6,0,11,176,43,176,13,67,11,177
   288 000005D4 5306000BB02BB00D43-
   288 000005DD 0BB1               
   289 000005DF 2BB10D440AB32AB307-          DB 43,177,13,68,10,179,42,179,7,182,39,182,33,83,6,0,64,75,7,176
   289 000005E8 B627B621530600404B-
   289 000005F1 07B0               
   290 000005F3 27B0004307B127B100-          DB 39,176,0,67,7,177,39,177,0,68,10,178,42,178,3,69,10,179,42,179
   290 000005FC 440AB22AB203450AB3-
   290 00000605 2AB3               
   291 00000607 07B627B60853060048-          DB 7,182,39,182,8,83,6,0,72,75,7,176,39,176,13,67,7,177,39,177
   291 00000610 4B07B027B00D4307B1-
   291 00000619 27B1               
   292 0000061B 0D440AB32AB34C4B07-          DB 13,68,10,179,42,179,76,75,7,182,39,182,33,83,6,0,11,176,43,176
   292 00000624 B627B6215306000BB0-
   292 0000062D 2BB0               
   293 0000062F 00430BB12BB100440A-          DB 0,67,11,177,43,177,0,68,10,179,42,179,7,182,39,182,8,83,6,0
   293 00000638 B32AB307B627B60853-
   293 00000641 0600               
   294 00000643 07B027B00D4307B127-          DB 7,176,39,176,13,67,7,177,39,177,13,68,10,179,42,179,7,182,39,182
   294 0000064C B10D440AB32AB307B6-
   294 00000655 27B6               
   295 00000657 21530600404B8DA007-          DB 33,83,6,0,64,75,141,160,7,176,39,176,0,67,141,161,7,177,39,177
   295 00000660 B027B000438DA107B1-
   295 00000669 27B1               
   296 0000066B 00440AB22AB200450A-          DB 0,68,10,178,42,178,0,69,10,179,42,179,7,182,39,182,8,83,6,0
   296 00000674 B32AB307B627B60853-
   296 0000067D 0600               
   297 0000067F 484B5AA00BB02BB00D-          DB 72,75,90,160,11,176,43,176,13,67,90,161,11,177,43,177,13,68,10,179
   297 00000688 435AA10BB12BB10D44-
   297 00000691 0AB3               
   298 00000693 2AB34C4B07B627B621-          DB 42,179,76,75,7,182,39,182,33,83,6,0,141,160,7,176,39,176,0,67
   298 0000069C 5306008DA007B027B0-
   298 000006A5 0043               
   299 000006A7 8DA107B127B100440A-          DB 141,161,7,177,39,177,0,68,10,179,42,179,7,182,39,182,8,83,6,0
   299 000006B0 B32AB307B627B60853-
   299 000006B9 0600               
   300 000006BB 07B027B00D4307B127-          DB 7,176,39,176,13,67,7,177,39,177,13,68,10,179,42,179,7,182,39,182
   300 000006C4 B10D440AB32AB307B6-
   300 000006CD 27B6               
   301 000006CF 21530600404B0BB02B-          DB 33,83,6,0,64,75,11,176,43,176,0,67,11,177,43,177,0,68,10,178
   301 000006D8 B000430BB12BB10044-
   301 000006E1 0AB2               
   302 000006E3 2AB203450AB32AB307-          DB 42,178,3,69,10,179,42,179,7,182,39,182,8,83,6,0,72,75,7,176
   302 000006EC B627B608530600484B-
   302 000006F5 07B0               
   303 000006F7 27B00D4307B127B10D-          DB 39,176,13,67,7,177,39,177,13,68,10,179,42,179,76,75,7,182,39,182
   303 00000700 440AB32AB34C4B07B6-
   303 00000709 27B6               
   304 0000070B 2153060007B027B000-          DB 33,83,6,0,7,176,39,176,0,67,7,177,39,177,0,68,10,178,42,178
   304 00000714 4307B127B100440AB2-
   304 0000071D 2AB2               
   305 0000071F 00450AB32AB30FB42F-          DB 0,69,10,179,42,179,15,180,47,180,15,181,47,181,7,182,39,182,8,83
   305 00000728 B40FB52FB507B627B6-
   305 00000731 0853               
   306 00000733 0BB72BB706000BB02B-          DB 11,183,43,183,6,0,11,176,43,176,13,67,11,177,43,177,13,68,10,179
   306 0000073C B00D430BB12BB10D44-
   306 00000745 0AB3               
   307 00000747 2AB307B627B62B5306-          DB 42,179,7,182,39,182,43,83,6,0,64,75,90,160,7,176,39,176,0,67
   307 00000750 00404B5AA007B027B0-
   307 00000759 0043               
   308 0000075B 5AA107B127B100440A-          DB 90,161,7,177,39,177,0,68,10,178,42,178,10,179,42,179,15,180,47,180
   308 00000764 B22AB20AB32AB30FB4-
   308 0000076D 2FB4               
   309 0000076F 0FB52FB507B627B604-          DB 15,181,47,181,7,182,39,182,4,83,11,183,43,183,6,0,72,75,141,160
   309 00000778 530BB72BB70600484B-
   309 00000781 8DA0               
   310 00000783 07B027B00D438DA107-          DB 7,176,39,176,13,67,141,161,7,177,39,177,13,68,10,179,42,179,76,75
   310 0000078C B127B10D440AB32AB3-
   310 00000795 4C4B               
   311 00000797 07B627B6215306005A-          DB 7,182,39,182,33,83,6,0,90,160,7,176,39,176,0,67,90,161,7,177
   311 000007A0 A007B027B000435AA1-
   311 000007A9 07B1               
   312 000007AB 27B100440AB32AB307-          DB 39,177,0,68,10,179,42,179,7,182,39,182,8,83,6,0,7,176,39,176
   312 000007B4 B627B60853060007B0-
   312 000007BD 27B0               
   313 000007BF 0D4307B127B10D440A-          DB 13,67,7,177,39,177,13,68,10,179,42,179,7,182,39,182,33,83,6,0
   313 000007C8 B32AB307B627B62153-
   313 000007D1 0600               
   314 000007D3 404B0BB02BB000430B-          DB 64,75,11,176,43,176,0,67,11,177,43,177,0,68,10,178,42,178,3,69
   314 000007DC B12BB100440AB22AB2-
   314 000007E5 0345               
   315 000007E7 0AB32AB307B627B608-          DB 10,179,42,179,7,182,39,182,8,83,6,0,72,75,7,176,39,176,13,67
   315 000007F0 530600484B07B027B0-
   315 000007F9 0D43               
   316 000007FB 07B127B10D440AB32A-          DB 7,177,39,177,13,68,10,179,42,179,76,75,7,182,39,182,33,83,6,0
   316 00000804 B34C4B07B627B62153-
   316 0000080D 0600               
   317 0000080F 07B027B0004307B127-          DB 7,176,39,176,0,67,7,177,39,177,0,68,10,179,42,179,7,182,39,182
   317 00000818 B100440AB32AB307B6-
   317 00000821 27B6               
   318 00000823 085306000BB02BB00D-          DB 8,83,6,0,11,176,43,176,13,67,11,177,43,177,13,68,10,179,42,179
   318 0000082C 430BB12BB10D440AB3-
   318 00000835 2AB3               
   319 00000837 07B627B62153060040-          DB 7,182,39,182,33,83,6,0,64,75,11,176,43,176,0,67,7,177,39,177
   319 00000840 4B0BB02BB0004307B1-
   319 00000849 27B1               
   320 0000084B 00440AB22AB200450A-          DB 0,68,10,178,42,178,0,69,10,179,42,179,7,182,39,182,8,83,6,0
   320 00000854 B32AB307B627B60853-
   320 0000085D 0600               
   321 0000085F 484B0BB02BB00D4307-          DB 72,75,11,176,43,176,13,67,7,177,39,177,13,68,10,179,42,179,76,75
   321 00000868 B127B10D440AB32AB3-
   321 00000871 4C4B               
   322 00000873 07B627B6215306000F-          DB 7,182,39,182,33,83,6,0,15,176,47,176,0,67,11,177,43,177,0,68
   322 0000087C B02FB000430BB12BB1-
   322 00000885 0044               
   323 00000887 0AB32AB307B627B608-          DB 10,179,42,179,7,182,39,182,8,83,6,0,11,176,43,176,13,67,7,177
   323 00000890 5306000BB02BB00D43-
   323 00000899 07B1               
   324 0000089B 27B10D440AB32AB307-          DB 39,177,13,68,10,179,42,179,7,182,39,182,33,83,6,0,64,75,11,176
   324 000008A4 B627B621530600404B-
   324 000008AD 0BB0               
   325 000008AF 2BB0004307B127B100-          DB 43,176,0,67,7,177,39,177,0,68,10,178,42,178,3,69,10,179,42,179
   325 000008B8 440AB22AB203450AB3-
   325 000008C1 2AB3               
   326 000008C3 07B627B60853060048-          DB 7,182,39,182,8,83,6,0,72,75,15,176,47,176,13,67,11,177,43,177
   326 000008CC 4B0FB02FB00D430BB1-
   326 000008D5 2BB1               
   327 000008D7 0D440AB32AB34C4B07-          DB 13,68,10,179,42,179,76,75,7,182,39,182,33,83,6,0,11,176,43,176
   327 000008E0 B627B6215306000BB0-
   327 000008E9 2BB0               
   328 000008EB 004307B127B100440A-          DB 0,67,7,177,39,177,0,68,10,179,42,179,7,182,39,182,8,83,6,0
   328 000008F4 B32AB307B627B60853-
   328 000008FD 0600               
   329 000008FF 0BB02BB00D4307B127-          DB 11,176,43,176,13,67,7,177,39,177,13,68,10,179,42,179,7,182,39,182
   329 00000908 B10D440AB32AB307B6-
   329 00000911 27B6               
   330 00000913 2B530600404B0BB02B-          DB 43,83,6,0,64,75,11,176,43,176,0,67,11,177,43,177,0,68,10,178
   330 0000091C B000430BB12BB10044-
   330 00000925 0AB2               
   331 00000927 2AB200450AB32AB38D-          DB 42,178,0,69,10,179,42,179,141,166,7,182,39,182,4,83,6,0,72,75
   331 00000930 A607B627B604530600-
   331 00000939 484B               
   332 0000093B 07B027B00D4307B127-          DB 7,176,39,176,13,67,7,177,39,177,13,68,10,179,42,179,76,75,90,166
   332 00000944 B10D440AB32AB34C4B-
   332 0000094D 5AA6               
   333 0000094F 07B627B62153060007-          DB 7,182,39,182,33,83,6,0,7,176,39,176,0,67,7,177,39,177,0,68
   333 00000958 B027B0004307B127B1-
   333 00000961 0044               
   334 00000963 0AB32AB307B627B608-          DB 10,179,42,179,7,182,39,182,8,83,6,0,11,176,43,176,13,67,11,177
   334 0000096C 5306000BB02BB00D43-
   334 00000975 0BB1               
   335 00000977 2BB10D440AB32AB307-          DB 43,177,13,68,10,179,42,179,7,182,39,182,33,83,6,0,64,75,7,176
   335 00000980 B627B621530600404B-
   335 00000989 07B0               
   336 0000098B 27B0004307B127B100-          DB 39,176,0,67,7,177,39,177,0,68,10,178,42,178,3,69,10,179,42,179
   336 00000994 440AB22AB203450AB3-
   336 0000099D 2AB3               
   337 0000099F 07B627B60853060048-          DB 7,182,39,182,8,83,6,0,72,75,7,176,39,176,13,67,7,177,39,177
   337 000009A8 4B07B027B00D4307B1-
   337 000009B1 27B1               
   338 000009B3 0D440AB32AB34C4B07-          DB 13,68,10,179,42,179,76,75,7,182,39,182,33,83,6,0,11,176,43,176
   338 000009BC B627B6215306000BB0-
   338 000009C5 2BB0               
   339 000009C7 00430BB12BB100440A-          DB 0,67,11,177,43,177,0,68,10,179,42,179,7,182,39,182,8,83,6,0
   339 000009D0 B32AB307B627B60853-
   339 000009D9 0600               
   340 000009DB 07B027B00D4307B127-          DB 7,176,39,176,13,67,7,177,39,177,13,68,10,179,42,179,7,182,39,182
   340 000009E4 B10D440AB32AB307B6-
   340 000009ED 27B6               
   341 000009EF 21530600404B8DA007-          DB 33,83,6,0,64,75,141,160,7,176,39,176,0,67,141,161,7,177,39,177
   341 000009F8 B027B000438DA107B1-
   341 00000A01 27B1               
   342 00000A03 00440AB22AB200450A-          DB 0,68,10,178,42,178,0,69,10,179,42,179,15,180,47,180,15,181,47,181
   342 00000A0C B32AB30FB42FB40FB5-
   342 00000A15 2FB5               
   343 00000A17 FDA607B627B603530B-          DB 253,166,7,182,39,182,3,83,11,183,43,183,6,0,72,75,90,160,11,176
   343 00000A20 B72BB70600484B5AA0-
   343 00000A29 0BB0               
   344 00000A2B 2BB00D435AA10BB12B-          DB 43,176,13,67,90,161,11,177,43,177,13,68,10,179,42,179,76,75,90,166
   344 00000A34 B10D440AB32AB34C4B-
   344 00000A3D 5AA6               
   345 00000A3F 07B627B6215306008D-          DB 7,182,39,182,33,83,6,0,141,160,7,176,39,176,0,67,141,161,7,177
   345 00000A48 A007B027B000438DA1-
   345 00000A51 07B1               
   346 00000A53 27B100440AB32AB307-          DB 39,177,0,68,10,179,42,179,7,182,39,182,8,83,6,0,7,176,39,176
   346 00000A5C B627B60853060007B0-
   346 00000A65 27B0               
   347 00000A67 0D4307B127B10D440A-          DB 13,67,7,177,39,177,13,68,10,179,42,179,7,182,39,182,33,83,7,0
   347 00000A70 B32AB307B627B62153-
   347 00000A79 0700               
   348 00000A7B 404B0BB02BB000430B-          DB 64,75,11,176,43,176,0,67,11,177,43,177,0,68,10,178,42,178,3,69
   348 00000A84 B12BB100440AB22AB2-
   348 00000A8D 0345               
   349 00000A8F 0AB32AB307B627B608-          DB 10,179,42,179,7,182,39,182,8,83,6,0,72,75,7,176,39,176,13,67
   349 00000A98 530600484B07B027B0-
   349 00000AA1 0D43               
   350 00000AA3 07B127B10D440AB32A-          DB 7,177,39,177,13,68,10,179,42,179,76,75,7,182,39,182,33,83,6,0
   350 00000AAC B34C4B07B627B62153-
   350 00000AB5 0600               
   351 00000AB7 07B027B0004307B127-          DB 7,176,39,176,0,67,7,177,39,177,0,68,10,179,42,179,7,182,39,182
   351 00000AC0 B100440AB32AB307B6-
   351 00000AC9 27B6               
   352 00000ACB 085306000BB02BB00D-          DB 8,83,6,0,11,176,43,176,13,67,11,177,43,177,13,68,10,179,42,179
   352 00000AD4 430BB12BB10D440AB3-
   352 00000ADD 2AB3               
   353 00000ADF 07B627B62B53060040-          DB 7,182,39,182,43,83,6,0,64,75,90,160,7,176,39,176,0,67,90,161
   353 00000AE8 4B5AA007B027B00043-
   353 00000AF1 5AA1               
   354 00000AF3 07B127B100440AB22A-          DB 7,177,39,177,0,68,10,178,42,178,0,69,10,179,42,179,15,180,47,180
   354 00000AFC B200450AB32AB30FB4-
   354 00000B05 2FB4               
   355 00000B07 0FB52FB58DA607B627-          DB 15,181,47,181,141,166,7,182,39,182,4,83,11,183,43,183,40,168,11,184
   355 00000B10 B604530BB72BB728A8-
   355 00000B19 0BB8               
   356 00000B1B 2BB80600484B8DA007-          DB 43,184,6,0,72,75,141,160,7,176,39,176,13,67,141,161,7,177,39,177
   356 00000B24 B027B00D438DA107B1-
   356 00000B2D 27B1               
   357 00000B2F 0D440AB32AB34C4B5A-          DB 13,68,10,179,42,179,76,75,90,166,7,182,39,182,33,83,6,0,90,160
   357 00000B38 A607B627B621530600-
   357 00000B41 5AA0               
   358 00000B43 07B027B000435AA107-          DB 7,176,39,176,0,67,90,161,7,177,39,177,0,68,10,179,42,179,7,182
   358 00000B4C B127B100440AB32AB3-
   358 00000B55 07B6               
   359 00000B57 27B60853060007B027-          DB 39,182,8,83,6,0,7,176,39,176,13,67,7,177,39,177,13,68,10,179
   359 00000B60 B00D4307B127B10D44-
   359 00000B69 0AB3               
   360 00000B6B 2AB307B627B6215306-          DB 42,179,7,182,39,182,33,83,6,0,64,75,11,176,43,176,0,67,11,177
   360 00000B74 00404B0BB02BB00043-
   360 00000B7D 0BB1               
   361 00000B7F 2BB100440AB22AB203-          DB 43,177,0,68,10,178,42,178,3,69,10,179,42,179,7,182,39,182,8,83
   361 00000B88 450AB32AB307B627B6-
   361 00000B91 0853               
   362 00000B93 0600484B07B027B00D-          DB 6,0,72,75,7,176,39,176,13,67,7,177,39,177,13,68,10,179,42,179
   362 00000B9C 4307B127B10D440AB3-
   362 00000BA5 2AB3               
   363 00000BA7 4C4B07B627B6215306-          DB 76,75,7,182,39,182,33,83,6,0,7,176,39,176,0,67,7,177,39,177
   363 00000BB0 0007B027B0004307B1-
   363 00000BB9 27B1               
   364 00000BBB 00440AB32AB307B627-          DB 0,68,10,179,42,179,7,182,39,182,8,83,6,0,11,176,43,176,13,67
   364 00000BC4 B6085306000BB02BB0-
   364 00000BCD 0D43               
   365 00000BCF 0BB12BB10D440AB32A-          DB 11,177,43,177,13,68,10,179,42,179,7,182,39,182,33,83,6,0,64,75
   365 00000BD8 B307B627B621530600-
   365 00000BE1 404B               
   366 00000BE3 0BB02BB0004307B127-          DB 11,176,43,176,0,67,7,177,39,177,0,68,10,178,42,178,0,69,10,179
   366 00000BEC B100440AB22AB20045-
   366 00000BF5 0AB3               
   367 00000BF7 2AB307B627B6085306-          DB 42,179,7,182,39,182,8,83,6,0,72,75,11,176,43,176,13,67,7,177
   367 00000C00 00484B0BB02BB00D43-
   367 00000C09 07B1               
   368 00000C0B 27B10D440AB32AB34C-          DB 39,177,13,68,10,179,42,179,76,75,7,182,39,182,33,83,6,0,15,176
   368 00000C14 4B07B627B621530600-
   368 00000C1D 0FB0               
   369 00000C1F 2FB000430BB12BB100-          DB 47,176,0,67,11,177,43,177,0,68,10,179,42,179,7,182,39,182,8,83
   369 00000C28 440AB32AB307B627B6-
   369 00000C31 0853               
   370 00000C33 06000BB02BB00D4307-          DB 6,0,11,176,43,176,13,67,7,177,39,177,13,68,10,179,42,179,7,182
   370 00000C3C B127B10D440AB32AB3-
   370 00000C45 07B6               
   371 00000C47 27B621530600404B0B-          DB 39,182,33,83,6,0,64,75,11,176,43,176,0,67,7,177,39,177,0,68
   371 00000C50 B02BB0004307B127B1-
   371 00000C59 0044               
   372 00000C5B 0AB22AB203450AB32A-          DB 10,178,42,178,3,69,10,179,42,179,7,182,39,182,8,83,6,0,72,75
   372 00000C64 B307B627B608530600-
   372 00000C6D 484B               
   373 00000C6F 0FB02FB00D430BB12B-          DB 15,176,47,176,13,67,11,177,43,177,13,68,10,179,42,179,76,75,7,182
   373 00000C78 B10D440AB32AB34C4B-
   373 00000C81 07B6               
   374 00000C83 27B6215306000BB02B-          DB 39,182,33,83,6,0,11,176,43,176,0,67,7,177,39,177,0,68,10,179
   374 00000C8C B0004307B127B10044-
   374 00000C95 0AB3               
   375 00000C97 2AB307B627B6085306-          DB 42,179,7,182,39,182,8,83,6,0,11,176,43,176,13,67,7,177,39,177
   375 00000CA0 000BB02BB00D4307B1-
   375 00000CA9 27B1               
   376 00000CAB 0D440AB32AB307B627-          DB 13,68,10,179,42,179,7,182,39,182,43,83,6,0,64,75,11,176,43,176
   376 00000CB4 B62B530600404B0BB0-
   376 00000CBD 2BB0               
   377 00000CBF 00430BB12BB100440A-          DB 0,67,11,177,43,177,0,68,10,178,42,178,0,69,10,179,42,179,141,166
   377 00000CC8 B22AB200450AB32AB3-
   377 00000CD1 8DA6               
   378 00000CD3 07B627B60453060048-          DB 7,182,39,182,4,83,6,0,72,75,7,176,39,176,13,67,7,177,39,177
   378 00000CDC 4B07B027B00D4307B1-
   378 00000CE5 27B1               
   379 00000CE7 0D440AB32AB34C4B5A-          DB 13,68,10,179,42,179,76,75,90,166,7,182,39,182,33,83,6,0,7,176
   379 00000CF0 A607B627B621530600-
   379 00000CF9 07B0               
   380 00000CFB 27B0004307B127B100-          DB 39,176,0,67,7,177,39,177,0,68,10,179,42,179,7,182,39,182,8,83
   380 00000D04 440AB32AB307B627B6-
   380 00000D0D 0853               
   381 00000D0F 06000BB02BB00D430B-          DB 6,0,11,176,43,176,13,67,11,177,43,177,13,68,10,179,42,179,7,182
   381 00000D18 B12BB10D440AB32AB3-
   381 00000D21 07B6               
   382 00000D23 27B621530600404B07-          DB 39,182,33,83,6,0,64,75,7,176,39,176,0,67,7,177,39,177,0,68
   382 00000D2C B027B0004307B127B1-
   382 00000D35 0044               
   383 00000D37 0AB22AB203450AB32A-          DB 10,178,42,178,3,69,10,179,42,179,7,182,39,182,8,83,6,0,72,75
   383 00000D40 B307B627B608530600-
   383 00000D49 484B               
   384 00000D4B 07B027B00D4307B127-          DB 7,176,39,176,13,67,7,177,39,177,13,68,10,179,42,179,76,75,7,182
   384 00000D54 B10D440AB32AB34C4B-
   384 00000D5D 07B6               
   385 00000D5F 27B6215306000BB02B-          DB 39,182,33,83,6,0,11,176,43,176,0,67,11,177,43,177,0,68,10,179
   385 00000D68 B000430BB12BB10044-
   385 00000D71 0AB3               
   386 00000D73 2AB307B627B6085306-          DB 42,179,7,182,39,182,8,83,6,0,7,176,39,176,13,67,7,177,39,177
   386 00000D7C 0007B027B00D4307B1-
   386 00000D85 27B1               
   387 00000D87 0D440AB32AB307B627-          DB 13,68,10,179,42,179,7,182,39,182,33,83,6,0,64,75,141,160,7,176
   387 00000D90 B621530600404B8DA0-
   387 00000D99 07B0               
   388 00000D9B 27B000438DA107B127-          DB 39,176,0,67,141,161,7,177,39,177,0,68,10,178,42,178,0,69,10,179
   388 00000DA4 B100440AB22AB20045-
   388 00000DAD 0AB3               
   389 00000DAF 2AB307B627B6085306-          DB 42,179,7,182,39,182,8,83,6,0,72,75,90,160,11,176,43,176,13,67
   389 00000DB8 00484B5AA00BB02BB0-
   389 00000DC1 0D43               
   390 00000DC3 5AA10BB12BB10D440A-          DB 90,161,11,177,43,177,13,68,10,179,42,179,76,75,7,182,39,182,33,83
   390 00000DCC B32AB34C4B07B627B6-
   390 00000DD5 2153               
   391 00000DD7 06008DA007B027B000-          DB 6,0,141,160,7,176,39,176,0,67,141,161,7,177,39,177,0,68,10,179
   391 00000DE0 438DA107B127B10044-
   391 00000DE9 0AB3               
   392 00000DEB 2AB307B627B6085306-          DB 42,179,7,182,39,182,8,83,6,0,7,176,39,176,13,67,7,177,39,177
   392 00000DF4 0007B027B00D4307B1-
   392 00000DFD 27B1               
   393 00000DFF 0D440AB32AB307B627-          DB 13,68,10,179,42,179,7,182,39,182,33,83,6,0,64,75,11,176,43,176
   393 00000E08 B621530600404B0BB0-
   393 00000E11 2BB0               
   394 00000E13 00430BB12BB100440A-          DB 0,67,11,177,43,177,0,68,10,178,42,178,3,69,10,179,42,179,7,182
   394 00000E1C B22AB203450AB32AB3-
   394 00000E25 07B6               
   395 00000E27 27B608530600484B07-          DB 39,182,8,83,6,0,72,75,7,176,39,176,13,67,7,177,39,177,13,68
   395 00000E30 B027B00D4307B127B1-
   395 00000E39 0D44               
   396 00000E3B 0AB32AB34C4B07B627-          DB 10,179,42,179,76,75,7,182,39,182,33,83,6,0,7,176,39,176,0,67
   396 00000E44 B62153060007B027B0-
   396 00000E4D 0043               
   397 00000E4F 07B127B100440AB22A-          DB 7,177,39,177,0,68,10,178,42,178,0,69,10,179,42,179,15,180,47,180
   397 00000E58 B200450AB32AB30FB4-
   397 00000E61 2FB4               
   398 00000E63 0FB52FB507B627B608-          DB 15,181,47,181,7,182,39,182,8,83,11,183,43,183,6,0,11,176,43,176
   398 00000E6C 530BB72BB706000BB0-
   398 00000E75 2BB0               
   399 00000E77 0D430BB12BB10D440A-          DB 13,67,11,177,43,177,13,68,10,179,42,179,7,182,39,182,43,83,6,0
   399 00000E80 B32AB307B627B62B53-
   399 00000E89 0600               
   400 00000E8B 404B5AA007B027B000-          DB 64,75,90,160,7,176,39,176,0,67,90,161,7,177,39,177,0,68,10,178
   400 00000E94 435AA107B127B10044-
   400 00000E9D 0AB2               
   401 00000E9F 2AB20AB32AB30FB42F-          DB 42,178,10,179,42,179,15,180,47,180,15,181,47,181,7,182,39,182,4,83
   401 00000EA8 B40FB52FB507B627B6-
   401 00000EB1 0453               
   402 00000EB3 0BB72BB70600484B8D-          DB 11,183,43,183,6,0,72,75,141,160,7,176,39,176,13,67,141,161,7,177
   402 00000EBC A007B027B00D438DA1-
   402 00000EC5 07B1               
   403 00000EC7 27B10D440AB32AB34C-          DB 39,177,13,68,10,179,42,179,76,75,7,182,39,182,33,83,6,0,90,160
   403 00000ED0 4B07B627B621530600-
   403 00000ED9 5AA0               
   404 00000EDB 07B027B000435AA107-          DB 7,176,39,176,0,67,90,161,7,177,39,177,0,68,10,179,42,179,7,182
   404 00000EE4 B127B100440AB32AB3-
   404 00000EED 07B6               
   405 00000EEF 27B60853060007B027-          DB 39,182,8,83,6,0,7,176,39,176,13,67,7,177,39,177,13,68,10,179
   405 00000EF8 B00D4307B127B10D44-
   405 00000F01 0AB3               
   406 00000F03 2AB307B627B6215306-          DB 42,179,7,182,39,182,33,83,6,0,64,75,11,176,43,176,0,67,11,177
   406 00000F0C 00404B0BB02BB00043-
   406 00000F15 0BB1               
   407 00000F17 2BB100440AB22AB203-          DB 43,177,0,68,10,178,42,178,3,69,10,179,42,179,7,182,39,182,8,83
   407 00000F20 450AB32AB307B627B6-
   407 00000F29 0853               
   408 00000F2B 0600484B07B027B00D-          DB 6,0,72,75,7,176,39,176,13,67,7,177,39,177,13,68,10,179,42,179
   408 00000F34 4307B127B10D440AB3-
   408 00000F3D 2AB3               
   409 00000F3F 4C4B07B627B6215306-          DB 76,75,7,182,39,182,33,83,6,0,7,176,39,176,0,67,7,177,39,177
   409 00000F48 0007B027B0004307B1-
   409 00000F51 27B1               
   410 00000F53 00440AB32AB307B627-          DB 0,68,10,179,42,179,7,182,39,182,8,83,6,0,11,176,43,176,13,67
   410 00000F5C B6085306000BB02BB0-
   410 00000F65 0D43               
   411 00000F67 0BB12BB10D440AB32A-          DB 11,177,43,177,13,68,10,179,42,179,7,182,39,182,33,83,6,0,64,75
   411 00000F70 B307B627B621530600-
   411 00000F79 404B               
   412 00000F7B 0BB02BB0004307B127-          DB 11,176,43,176,0,67,7,177,39,177,0,68,10,178,42,178,0,69,10,179
   412 00000F84 B100440AB22AB20045-
   412 00000F8D 0AB3               
   413 00000F8F 2AB307B627B6085306-          DB 42,179,7,182,39,182,8,83,6,0,72,75,11,176,43,176,13,67,7,177
   413 00000F98 00484B0BB02BB00D43-
   413 00000FA1 07B1               
   414 00000FA3 27B10D440AB32AB34C-          DB 39,177,13,68,10,179,42,179,76,75,7,182,39,182,33,83,6,0,15,176
   414 00000FAC 4B07B627B621530600-
   414 00000FB5 0FB0               
   415 00000FB7 2FB000430BB12BB100-          DB 47,176,0,67,11,177,43,177,0,68,10,179,42,179,7,182,39,182,8,83
   415 00000FC0 440AB32AB307B627B6-
   415 00000FC9 0853               
   416 00000FCB 06000BB02BB00D4307-          DB 6,0,11,176,43,176,13,67,7,177,39,177,13,68,10,179,42,179,7,182
   416 00000FD4 B127B10D440AB32AB3-
   416 00000FDD 07B6               
   417 00000FDF 27B621530600404B0B-          DB 39,182,33,83,6,0,64,75,11,176,43,176,0,67,7,177,39,177,0,68
   417 00000FE8 B02BB0004307B127B1-
   417 00000FF1 0044               
   418 00000FF3 0AB22AB203450AB32A-          DB 10,178,42,178,3,69,10,179,42,179,7,182,39,182,8,83,6,0,72,75
   418 00000FFC B307B627B608530600-
   418 00001005 484B               
   419 00001007 0FB02FB00D430BB12B-          DB 15,176,47,176,13,67,11,177,43,177,13,68,10,179,42,179,76,75,7,182
   419 00001010 B10D440AB32AB34C4B-
   419 00001019 07B6               
   420 0000101B 27B6215306000BB02B-          DB 39,182,33,83,6,0,11,176,43,176,0,67,7,177,39,177,0,68,10,179
   420 00001024 B0004307B127B10044-
   420 0000102D 0AB3               
   421 0000102F 2AB307B627B6085306-          DB 42,179,7,182,39,182,8,83,6,0,11,176,43,176,13,67,7,177,39,177
   421 00001038 000BB02BB00D4307B1-
   421 00001041 27B1               
   422 00001043 0D440AB32AB307B627-          DB 13,68,10,179,42,179,7,182,39,182,43,83,6,0,64,75,65,49,194,52
   422 0000104C B62B530600404B4131-
   422 00001055 C234               
   423 00001057 065100542371F274F0-          DB 6,81,0,84,35,113,242,116,240,145,240,148,1,241,251,160,6,176,38,176
   423 00001060 91F09401F1FBA006B0-
   423 00001069 26B0               
   424 0000106B 0043FBA106B126B100-          DB 0,67,251,161,6,177,38,177,0,68,10,178,42,178,0,69,10,179,42,179
   424 00001074 440AB22AB200450AB3-
   424 0000107D 2AB3               
   425 0000107F 0FB42FB40FB52FB5FB-          DB 15,180,47,180,15,181,47,181,251,166,6,182,38,182,4,83,251,167,14,183
   425 00001088 A606B626B60453FBA7-
   425 00001091 0EB7               
   426 00001093 2EB708540D008DA72F-          DB 46,183,8,84,13,0,141,167,47,183,1,0,61,167,50,183,1,0,251,167
   426 0000109C B701003DA732B70100-
   426 000010A5 FBA7               
   427 000010A7 2EB701008DA72FB701-          DB 46,183,1,0,141,167,47,183,1,0,61,167,50,183,1,0,251,167,46,183
   427 000010B0 003DA732B70100FBA7-
   427 000010B9 2EB7               
   428 000010BB 060006B026B00D4306-          DB 6,0,6,176,38,176,13,67,6,177,38,177,13,68,10,178,42,178,3,69
   428 000010C4 B126B10D440AB22AB2-
   428 000010CD 0345               
   429 000010CF 0200FAA63DA732B702-          DB 2,0,250,166,61,167,50,183,2,0,249,166,251,167,46,183,1,0,251,166
   429 000010D8 00F9A6FBA72EB70100-
   429 000010E1 FBA6               
   430 000010E3 3DA732B70200FBA72E-          DB 61,167,50,183,2,0,251,167,46,183,1,0,253,166,2,0,251,166,2,0
   430 000010EC B70100FDA60200FBA6-
   430 000010F5 0200               
   431 000010F7 FAA60200F9A68DA72F-          DB 250,166,2,0,249,166,141,167,47,183,1,0,250,166,61,167,50,183,1,0
   431 00001100 B70100FAA63DA732B7-
   431 00001109 0100               
   432 0000110B FBA6FBA72EB70100FD-          DB 251,166,251,167,46,183,1,0,253,166,141,167,47,183,1,0,61,167,50,183
   432 00001114 A68DA72FB701003DA7-
   432 0000111D 32B7               
   433 0000111F 0100FBA72EB70200FB-          DB 1,0,251,167,46,183,2,0,251,166,1,0,250,166,1,0,249,166,1,0
   433 00001128 A60100FAA60100F9A6-
   433 00001131 0100               
   434 00001133 FAA6010006B026B017-          DB 250,166,1,0,6,176,38,176,23,67,6,177,38,177,23,68,10,178,42,178
   434 0000113C 4306B126B117440AB2-
   434 00001145 2AB2               
   435 00001147 00451CA80AB82AB811-          DB 0,69,28,168,10,184,42,184,17,85,1,0,219,166,141,167,47,183,1,0
   435 00001150 550100DBA68DA72FB7-
   435 00001159 0100               
   436 0000115B BFA63DA732B70100A5-          DB 191,166,61,167,50,183,1,0,165,166,251,167,46,183,1,0,141,166,141,167
   436 00001164 A6FBA72EB701008DA6-
   436 0000116D 8DA7               
   437 0000116F 2FB7010077A63DA732-          DB 47,183,1,0,119,166,61,167,50,183,1,0,251,167,46,183,60,168,10,184
   437 00001178 B70100FBA72EB73CA8-
   437 00001181 0AB8               
   438 00001183 2AB80F55010062A601-          DB 42,184,15,85,1,0,98,166,1,0,78,166,1,0,59,166,1,0,42,166
   438 0000118C 004EA601003BA60100-
   438 00001195 2AA6               
   439 00001197 01001AA601005EA80A-          DB 1,0,26,166,1,0,94,168,10,184,42,184,13,85,1,0,10,166,141,167
   439 000011A0 B82AB80D5501000AA6-
   439 000011A9 8DA7               
   440 000011AB 2FB70100F8A623B63D-          DB 47,183,1,0,248,166,35,182,61,167,50,183,1,0,221,166,251,167,46,183
   440 000011B4 A732B70100DDA6FBA7-
   440 000011BD 2EB7               
   441 000011BF 0100C3A68DA72FB701-          DB 1,0,195,166,141,167,47,183,1,0,170,166,61,167,50,183,1,0,251,167
   441 000011C8 00AAA63DA732B70100-
   441 000011D1 FBA7               
   442 000011D3 2EB781A80AB82AB80B-          DB 46,183,129,168,10,184,42,184,11,85,1,0,146,166,1,0,124,166,1,0
   442 000011DC 55010092A601007CA6-
   442 000011E5 0100               
   443 000011E7 67A6010053A6010040-          DB 103,166,1,0,83,166,1,0,64,166,1,0,65,40,194,43,6,72,0,75
   443 000011F0 A601004128C22B0648-
   443 000011F9 004B               
   444 000011FB 2368F26B01E800EB04-          DB 35,104,242,107,1,232,0,235,4,195,0,49,0,52,8,81,0,84,248,113
   444 00001204 C30031003408510054-
   444 0000120D F871               
   445 0000120F F4742691479402F15A-          DB 244,116,38,145,71,148,2,241,90,160,7,176,39,176,33,67,6,177,38,177
   445 00001218 A007B027B0214306B1-
   445 00001221 26B1               
   446 00001223 21440AB22AB203455A-          DB 33,68,10,178,42,178,3,69,90,163,7,179,39,179,33,75,15,180,47,180
   446 0000122C A307B327B3214B0FB4-
   446 00001235 2FB4               
   447 00001237 174C0FB52FB5184D5A-          DB 23,76,15,181,47,181,24,77,90,167,11,183,43,183,23,84,167,168,10,184
   447 00001240 A70BB72BB71754A7A8-
   447 00001249 0AB8               
   448 0000124B 2AB80A5501002DA601-          DB 42,184,10,85,1,0,45,166,1,0,27,166,1,0,11,166,1,0,250,166
   448 00001254 001BA601000BA60100-
   448 0000125D FAA6               
   449 0000125F 22B60100EBA6010007-          DB 34,182,1,0,235,166,1,0,7,176,39,176,23,67,6,177,38,177,23,68
   449 00001268 B027B0174306B126B1-
   449 00001271 1744               
   450 00001273 0AB22AB207B327B317-          DB 10,178,42,178,7,179,39,179,23,75,15,180,47,180,18,76,15,181,47,181
   450 0000127C 4B0FB42FB4124C0FB5-
   450 00001285 2FB5               
   451 00001287 144D0BB72BB71254D0-          DB 20,77,11,183,43,183,18,84,208,168,10,184,42,184,9,85,1,0,220,166
   451 00001290 A80AB82AB809550100-
   451 00001299 DCA6               
   452 0000129B 0100CDA60100BFA601-          DB 1,0,205,166,1,0,191,166,1,0,178,166,1,0,165,166,1,0,7,176
   452 000012A4 00B2A60100A5A60100-
   452 000012AD 07B0               
   453 000012AF 27B00D4306B126B10D-          DB 39,176,13,67,6,177,38,177,13,68,10,178,42,178,7,179,39,179,13,75
   453 000012B8 440AB22AB207B327B3-
   453 000012C1 0D4B               
   454 000012C3 0FB42FB40D4C0FB52F-          DB 15,180,47,180,13,76,15,181,47,181,15,77,11,183,43,183,13,84,251,168
   454 000012CC B50F4D0BB72BB70D54-
   454 000012D5 FBA8               
   455 000012D7 0AB82AB80855010099-          DB 10,184,42,184,8,85,1,0,153,166,1,0,142,166,1,0,130,166,1,0
   455 000012E0 A601008EA6010082A6-
   455 000012E9 0100               
   456 000012EB 77A601006CA6010007-          DB 119,166,1,0,108,166,1,0,7,176,39,176,3,67,6,177,38,177,3,68
   456 000012F4 B027B0034306B126B1-
   456 000012FD 0344               
   457 000012FF 0AB22AB207B327B303-          DB 10,178,42,178,7,179,39,179,3,75,15,180,47,180,11,76,15,181,47,181
   457 00001308 4B0FB42FB40B4C0FB5-
   457 00001311 2FB5               
   458 00001313 0D4D0BB72BB70B5428-          DB 13,77,11,183,43,183,11,84,40,168,11,184,43,184,3,85,1,0,98,166
   458 0000131C A80BB82BB803550100-
   458 00001325 62A6               
   459 00001327 010058A601004EA601-          DB 1,0,88,166,1,0,78,166,1,0,69,166,1,0,60,166,1,0,15,40
   459 00001330 0045A601003CA60100-
   459 00001339 0F28               
   460 0000133B 002B0048404BF768E7-          DB 0,43,0,72,64,75,247,104,231,107,0,232,3,235,8,195,0,42,0,45
   460 00001344 6B00E803EB08C3002A-
   460 0000134D 002D               
   461 0000134F 084A004DF86AF46D26-          DB 8,74,0,77,248,106,244,109,38,138,71,141,2,234,4,197,65,49,194,52
   461 00001358 8A478D02EA04C54131-
   461 00001361 C234               
   462 00001363 065100542371F274F0-          DB 6,81,0,84,35,113,242,116,240,145,240,148,1,241,7,176,39,176,0,67
   462 0000136C 91F09401F107B027B0-
   462 00001375 0043               
   463 00001377 5AA107B127B100440A-          DB 90,161,7,177,39,177,0,68,10,178,42,178,0,69,167,163,10,179,42,179
   463 00001380 B22AB20045A7A30AB3-
   463 00001389 2AB3               
   464 0000138B 0FB42FB4004C0BB52B-          DB 15,180,47,180,0,76,11,181,43,181,8,77,141,166,7,182,39,182,15,183
   464 00001394 B5084D8DA607B627B6-
   464 0000139D 0FB7               
   465 0000139F 2FB708545AA80BB82B-          DB 47,183,8,84,90,168,11,184,43,184,4,85,1,0,253,167,1,0,130,167
   465 000013A8 B804550100FDA70100-
   465 000013B1 82A7               
   466 000013B3 32B701005AA72FB701-          DB 50,183,1,0,90,167,47,183,1,0,253,167,1,0,130,167,50,183,1,0
   466 000013BC 00FDA7010082A732B7-
   466 000013C5 0100               
   467 000013C7 484B8DA007B027B00D-          DB 72,75,141,160,7,176,39,176,13,67,141,161,7,177,39,177,13,68,10,179
   467 000013D0 438DA107B127B10D44-
   467 000013D9 0AB3               
   468 000013DB 2AB34C4B5AA607B627-          DB 42,179,76,75,90,166,7,182,39,182,33,83,90,167,47,183,6,0,90,160
   468 000013E4 B621535AA72FB70600-
   468 000013ED 5AA0               
   469 000013EF 07B027B000435AA107-          DB 7,176,39,176,0,67,90,161,7,177,39,177,0,68,10,179,42,179,7,182
   469 000013F8 B127B100440AB32AB3-
   469 00001401 07B6               
   470 00001403 27B6085307B827B809-          DB 39,182,8,83,7,184,39,184,9,85,1,0,253,167,1,0,130,167,50,183
   470 0000140C 550100FDA7010082A7-
   470 00001415 32B7               
   471 00001417 01005AA72FB70100FD-          DB 1,0,90,167,47,183,1,0,253,167,1,0,130,167,50,183,1,0,7,176
   471 00001420 A7010082A732B70100-
   471 00001429 07B0               
   472 0000142B 27B00D4307B127B10D-          DB 39,176,13,67,7,177,39,177,13,68,10,179,42,179,7,182,39,182,33,83
   472 00001434 440AB32AB307B627B6-
   472 0000143D 2153               
   473 0000143F 5AA72FB70600404B0B-          DB 90,167,47,183,6,0,64,75,11,176,43,176,0,67,11,177,43,177,0,68
   473 00001448 B02BB000430BB12BB1-
   473 00001451 0044               
   474 00001453 0AB22AB203450AB32A-          DB 10,178,42,178,3,69,10,179,42,179,7,182,39,182,8,83,15,184,47,184
   474 0000145C B307B627B608530FB8-
   474 00001465 2FB8               
   475 00001467 04550100FDA7010082-          DB 4,85,1,0,253,167,1,0,130,167,50,183,1,0,90,167,47,183,1,0
   475 00001470 A732B701005AA72FB7-
   475 00001479 0100               
   476 0000147B FDA7010082A732B701-          DB 253,167,1,0,130,167,50,183,1,0,72,75,7,176,39,176,13,67,7,177
   476 00001484 00484B07B027B00D43-
   476 0000148D 07B1               
   477 0000148F 27B10D440AB32AB34C-          DB 39,177,13,68,10,179,42,179,76,75,7,182,39,182,33,83,90,167,47,183
   477 00001498 4B07B627B621535AA7-
   477 000014A1 2FB7               
   478 000014A3 060007B027B0004307-          DB 6,0,7,176,39,176,0,67,7,177,39,177,0,68,10,179,42,179,7,182
   478 000014AC B127B100440AB32AB3-
   478 000014B5 07B6               
   479 000014B7 27B608530BB82BB809-          DB 39,182,8,83,11,184,43,184,9,85,1,0,253,167,1,0,130,167,50,183
   479 000014C0 550100FDA7010082A7-
   479 000014C9 32B7               
   480 000014CB 01005AA72FB70100FD-          DB 1,0,90,167,47,183,1,0,253,167,1,0,130,167,50,183,1,0,11,176
   480 000014D4 A7010082A732B70100-
   480 000014DD 0BB0               
   481 000014DF 2BB00D430BB12BB10D-          DB 43,176,13,67,11,177,43,177,13,68,10,179,42,179,7,182,39,182,33,83
   481 000014E8 440AB32AB307B627B6-
   481 000014F1 2153               
   482 000014F3 5AA72FB70600404B0B-          DB 90,167,47,183,6,0,64,75,11,176,43,176,0,67,7,177,39,177,0,68
   482 000014FC B02BB0004307B127B1-
   482 00001505 0044               
   483 00001507 0AB22AB200450AB32A-          DB 10,178,42,178,0,69,10,179,42,179,7,182,39,182,8,83,141,168,15,184
   483 00001510 B307B627B608538DA8-
   483 00001519 0FB8               
   484 0000151B 2FB804550100FDA701-          DB 47,184,4,85,1,0,253,167,1,0,130,167,50,183,1,0,90,167,47,183
   484 00001524 0082A732B701005AA7-
   484 0000152D 2FB7               
   485 0000152F 0100FDA7010082A732-          DB 1,0,253,167,1,0,130,167,50,183,1,0,72,75,11,176,43,176,13,67
   485 00001538 B70100484B0BB02BB0-
   485 00001541 0D43               
   486 00001543 07B127B10D440AB32A-          DB 7,177,39,177,13,68,10,179,42,179,76,75,7,182,39,182,33,83,90,167
   486 0000154C B34C4B07B627B62153-
   486 00001555 5AA7               
   487 00001557 2FB706000FB02FB000-          DB 47,183,6,0,15,176,47,176,0,67,11,177,43,177,0,68,10,179,42,179
   487 00001560 430BB12BB100440AB3-
   487 00001569 2AB3               
   488 0000156B 07B627B608530BB82B-          DB 7,182,39,182,8,83,11,184,43,184,9,85,1,0,253,167,1,0,130,167
   488 00001574 B809550100FDA70100-
   488 0000157D 82A7               
   489 0000157F 32B701005AA72FB701-          DB 50,183,1,0,90,167,47,183,1,0,253,167,1,0,130,167,50,183,1,0
   489 00001588 00FDA7010082A732B7-
   489 00001591 0100               
   490 00001593 0BB02BB00D4307B127-          DB 11,176,43,176,13,67,7,177,39,177,13,68,10,179,42,179,7,182,39,182
   490 0000159C B10D440AB32AB307B6-
   490 000015A5 27B6               
   491 000015A7 21535AA72FB7060040-          DB 33,83,90,167,47,183,6,0,64,75,11,176,43,176,0,67,7,177,39,177
   491 000015B0 4B0BB02BB0004307B1-
   491 000015B9 27B1               
   492 000015BB 00440AB22AB203450A-          DB 0,68,10,178,42,178,3,69,10,179,42,179,7,182,39,182,8,83,251,168
   492 000015C4 B32AB307B627B60853-
   492 000015CD FBA8               
   493 000015CF 0EB82EB804550100FD-          DB 14,184,46,184,4,85,1,0,253,167,1,0,130,167,50,183,1,0,90,167
   493 000015D8 A7010082A732B70100-
   493 000015E1 5AA7               
   494 000015E3 2FB70100FDA7010082-          DB 47,183,1,0,253,167,1,0,130,167,50,183,1,0,72,75,15,176,47,176
   494 000015EC A732B70100484B0FB0-
   494 000015F5 2FB0               
   495 000015F7 0D430BB12BB10D440A-          DB 13,67,11,177,43,177,13,68,10,179,42,179,76,75,7,182,39,182,33,83
   495 00001600 B32AB34C4B07B627B6-
   495 00001609 2153               
   496 0000160B 5AA72FB706000BB02B-          DB 90,167,47,183,6,0,11,176,43,176,0,67,7,177,39,177,0,68,10,179
   496 00001614 B0004307B127B10044-
   496 0000161D 0AB3               
   497 0000161F 2AB307B627B608530A-          DB 42,179,7,182,39,182,8,83,10,184,42,184,9,85,1,0,253,167,1,0
   497 00001628 B82AB809550100FDA7-
   497 00001631 0100               
   498 00001633 82A732B701005AA72F-          DB 130,167,50,183,1,0,90,167,47,183,1,0,253,167,1,0,130,167,50,183
   498 0000163C B70100FDA7010082A7-
   498 00001645 32B7               
   499 00001647 01000BB02BB00D4307-          DB 1,0,11,176,43,176,13,67,7,177,39,177,13,68,10,179,42,179,7,182
   499 00001650 B127B10D440AB32AB3-
   499 00001659 07B6               
   500 0000165B 27B62B535AA72FB706-          DB 39,182,43,83,90,167,47,183,6,0,64,75,11,176,43,176,0,67,11,177
   500 00001664 00404B0BB02BB00043-
   500 0000166D 0BB1               
   501 0000166F 2BB100440AB22AB200-          DB 43,177,0,68,10,178,42,178,0,69,10,179,42,179,141,166,7,182,39,182
   501 00001678 450AB32AB38DA607B6-
   501 00001681 27B6               
   502 00001683 04530FB72FB75AA80B-          DB 4,83,15,183,47,183,90,168,11,184,43,184,4,85,1,0,253,167,1,0
   502 0000168C B82BB804550100FDA7-
   502 00001695 0100               
   503 00001697 5EA732B701005AA72F-          DB 94,167,50,183,1,0,90,167,47,183,1,0,253,167,1,0,94,167,50,183
   503 000016A0 B70100FDA701005EA7-
   503 000016A9 32B7               
   504 000016AB 0100484B07B027B00D-          DB 1,0,72,75,7,176,39,176,13,67,7,177,39,177,13,68,10,179,42,179
   504 000016B4 4307B127B10D440AB3-
   504 000016BD 2AB3               
   505 000016BF 4C4B5AA607B627B621-          DB 76,75,90,166,7,182,39,182,33,83,90,167,47,183,6,0,7,176,39,176
   505 000016C8 535AA72FB7060007B0-
   505 000016D1 27B0               
   506 000016D3 004307B127B100440A-          DB 0,67,7,177,39,177,0,68,10,179,42,179,7,182,39,182,8,83,7,184
   506 000016DC B32AB307B627B60853-
   506 000016E5 07B8               
   507 000016E7 27B809550100FDA701-          DB 39,184,9,85,1,0,253,167,1,0,94,167,50,183,1,0,90,167,47,183
   507 000016F0 005EA732B701005AA7-
   507 000016F9 2FB7               
   508 000016FB 0100FDA701005EA732-          DB 1,0,253,167,1,0,94,167,50,183,1,0,11,176,43,176,13,67,11,177
   508 00001704 B701000BB02BB00D43-
   508 0000170D 0BB1               
   509 0000170F 2BB10D440AB32AB307-          DB 43,177,13,68,10,179,42,179,7,182,39,182,33,83,90,167,47,183,6,0
   509 00001718 B627B621535AA72FB7-
   509 00001721 0600               
   510 00001723 404B07B027B0004307-          DB 64,75,7,176,39,176,0,67,7,177,39,177,0,68,10,178,42,178,3,69
   510 0000172C B127B100440AB22AB2-
   510 00001735 0345               
   511 00001737 0AB32AB307B627B608-          DB 10,179,42,179,7,182,39,182,8,83,253,168,15,184,47,184,4,85,1,0
   511 00001740 53FDA80FB82FB80455-
   511 00001749 0100               
   512 0000174B FDA701005EA732B701-          DB 253,167,1,0,94,167,50,183,1,0,90,167,47,183,1,0,253,167,1,0
   512 00001754 005AA72FB70100FDA7-
   512 0000175D 0100               
   513 0000175F 5EA732B70100484B07-          DB 94,167,50,183,1,0,72,75,7,176,39,176,13,67,7,177,39,177,13,68
   513 00001768 B027B00D4307B127B1-
   513 00001771 0D44               
   514 00001773 0AB32AB34C4B07B627-          DB 10,179,42,179,76,75,7,182,39,182,33,83,90,167,47,183,6,0,11,176
   514 0000177C B621535AA72FB70600-
   514 00001785 0BB0               
   515 00001787 2BB000430BB12BB100-          DB 43,176,0,67,11,177,43,177,0,68,10,179,42,179,7,182,39,182,8,83
   515 00001790 440AB32AB307B627B6-
   515 00001799 0853               
   516 0000179B 0BB82BB809550100FD-          DB 11,184,43,184,9,85,1,0,253,167,1,0,94,167,50,183,1,0,90,167
   516 000017A4 A701005EA732B70100-
   516 000017AD 5AA7               
   517 000017AF 2FB70100FDA701005E-          DB 47,183,1,0,253,167,1,0,94,167,50,183,1,0,7,176,39,176,13,67
   517 000017B8 A732B7010007B027B0-
   517 000017C1 0D43               
   518 000017C3 07B127B10D440AB32A-          DB 7,177,39,177,13,68,10,179,42,179,7,182,39,182,33,83,90,167,47,183
   518 000017CC B307B627B621535AA7-
   518 000017D5 2FB7               
   519 000017D7 0600404B8DA007B027-          DB 6,0,64,75,141,160,7,176,39,176,0,67,141,161,7,177,39,177,0,68
   519 000017E0 B000438DA107B127B1-
   519 000017E9 0044               
   520 000017EB 0AB22AB200450AB32A-          DB 10,178,42,178,0,69,10,179,42,179,7,182,39,182,8,83,61,168,18,184
   520 000017F4 B307B627B608533DA8-
   520 000017FD 12B8               
   521 000017FF 32B804550100FDA701-          DB 50,184,4,85,1,0,253,167,1,0,94,167,50,183,1,0,90,167,47,183
   521 00001808 005EA732B701005AA7-
   521 00001811 2FB7               
   522 00001813 0100FDA701005EA732-          DB 1,0,253,167,1,0,94,167,50,183,1,0,72,75,90,160,11,176,43,176
   522 0000181C B70100484B5AA00BB0-
   522 00001825 2BB0               
   523 00001827 0D435AA10BB12BB10D-          DB 13,67,90,161,11,177,43,177,13,68,10,179,42,179,76,75,7,182,39,182
   523 00001830 440AB32AB34C4B07B6-
   523 00001839 27B6               
   524 0000183B 21535AA72FB706008D-          DB 33,83,90,167,47,183,6,0,141,160,7,176,39,176,0,67,141,161,7,177
   524 00001844 A007B027B000438DA1-
   524 0000184D 07B1               
   525 0000184F 27B100440AB32AB307-          DB 39,177,0,68,10,179,42,179,7,182,39,182,8,83,60,168,14,184,46,184
   525 00001858 B627B608533CA80EB8-
   525 00001861 2EB8               
   526 00001863 09550100FDA701005E-          DB 9,85,1,0,253,167,1,0,94,167,50,183,1,0,90,167,47,183,1,0
   526 0000186C A732B701005AA72FB7-
   526 00001875 0100               
   527 00001877 FDA701005EA732B701-          DB 253,167,1,0,94,167,50,183,1,0,7,176,39,176,13,67,7,177,39,177
   527 00001880 0007B027B00D4307B1-
   527 00001889 27B1               
   528 0000188B 0D440AB32AB307B627-          DB 13,68,10,179,42,179,7,182,39,182,33,83,90,167,47,183,6,0,64,75
   528 00001894 B621535AA72FB70600-
   528 0000189D 404B               
   529 0000189F 0BB02BB000430BB12B-          DB 11,176,43,176,0,67,11,177,43,177,0,68,10,178,42,178,3,69,10,179
   529 000018A8 B100440AB22AB20345-
   529 000018B1 0AB3               
   530 000018B3 2AB307B627B608530F-          DB 42,179,7,182,39,182,8,83,15,183,47,183,141,168,15,184,47,184,4,85
   530 000018BC B72FB78DA80FB82FB8-
   530 000018C5 0455               
   531 000018C7 0100FDA70100A8A732-          DB 1,0,253,167,1,0,168,167,50,183,1,0,90,167,47,183,1,0,253,167
   531 000018D0 B701005AA72FB70100-
   531 000018D9 FDA7               
   532 000018DB 0100A8A732B7010048-          DB 1,0,168,167,50,183,1,0,72,75,7,176,39,176,13,67,7,177,39,177
   532 000018E4 4B07B027B00D4307B1-
   532 000018ED 27B1               
   533 000018EF 0D440AB32AB34C4B07-          DB 13,68,10,179,42,179,76,75,7,182,39,182,33,83,90,167,47,183,6,0
   533 000018F8 B627B621535AA72FB7-
   533 00001901 0600               
   534 00001903 07B027B0004307B127-          DB 7,176,39,176,0,67,7,177,39,177,0,68,10,178,42,178,0,69,10,179
   534 0000190C B100440AB22AB20045-
   534 00001915 0AB3               
   535 00001917 2AB30FB42FB40BB52B-          DB 42,179,15,180,47,180,11,181,43,181,7,182,39,182,8,83,11,184,43,184
   535 00001920 B507B627B608530BB8-
   535 00001929 2BB8               
   536 0000192B 09550100FDA70100A8-          DB 9,85,1,0,253,167,1,0,168,167,50,183,1,0,90,167,47,183,1,0
   536 00001934 A732B701005AA72FB7-
   536 0000193D 0100               
   537 0000193F FDA70100A8A732B701-          DB 253,167,1,0,168,167,50,183,1,0,11,176,43,176,13,67,11,177,43,177
   537 00001948 000BB02BB00D430BB1-
   537 00001951 2BB1               
   538 00001953 0D440AB32AB307B627-          DB 13,68,10,179,42,179,7,182,39,182,43,83,90,167,47,183,6,0,64,75
   538 0000195C B62B535AA72FB70600-
   538 00001965 404B               
   539 00001967 5AA007B027B000435A-          DB 90,160,7,176,39,176,0,67,90,161,7,177,39,177,0,68,10,178,42,178
   539 00001970 A107B127B100440AB2-
   539 00001979 2AB2               
   540 0000197B 0AB32AB30FB42FB40B-          DB 10,179,42,179,15,180,47,180,11,181,43,181,7,182,39,182,4,83,15,183
   540 00001984 B52BB507B627B60453-
   540 0000198D 0FB7               
   541 0000198F 2FB75AA80BB82BB804-          DB 47,183,90,168,11,184,43,184,4,85,1,0,253,167,1,0,130,167,50,183
   541 00001998 550100FDA7010082A7-
   541 000019A1 32B7               
   542 000019A3 01005AA72FB70100FD-          DB 1,0,90,167,47,183,1,0,253,167,1,0,130,167,50,183,1,0,72,75
   542 000019AC A7010082A732B70100-
   542 000019B5 484B               
   543 000019B7 8DA007B027B00D438D-          DB 141,160,7,176,39,176,13,67,141,161,7,177,39,177,13,68,10,179,42,179
   543 000019C0 A107B127B10D440AB3-
   543 000019C9 2AB3               
   544 000019CB 4C4B07B627B621535A-          DB 76,75,7,182,39,182,33,83,90,167,47,183,6,0,90,160,7,176,39,176
   544 000019D4 A72FB706005AA007B0-
   544 000019DD 27B0               
   545 000019DF 00435AA107B127B100-          DB 0,67,90,161,7,177,39,177,0,68,10,179,42,179,7,182,39,182,8,83
   545 000019E8 440AB32AB307B627B6-
   545 000019F1 0853               
   546 000019F3 07B827B809550100FD-          DB 7,184,39,184,9,85,1,0,253,167,1,0,130,167,50,183,1,0,90,167
   546 000019FC A7010082A732B70100-
   546 00001A05 5AA7               
   547 00001A07 2FB70100FDA7010082-          DB 47,183,1,0,253,167,1,0,130,167,50,183,1,0,7,176,39,176,13,67
   547 00001A10 A732B7010007B027B0-
   547 00001A19 0D43               
   548 00001A1B 07B127B10D440AB32A-          DB 7,177,39,177,13,68,10,179,42,179,7,182,39,182,33,83,90,167,47,183
   548 00001A24 B307B627B621535AA7-
   548 00001A2D 2FB7               
   549 00001A2F 0600404B0BB02BB000-          DB 6,0,64,75,11,176,43,176,0,67,11,177,43,177,0,68,10,178,42,178
   549 00001A38 430BB12BB100440AB2-
   549 00001A41 2AB2               
   550 00001A43 03450AB32AB307B627-          DB 3,69,10,179,42,179,7,182,39,182,8,83,15,184,47,184,4,85,1,0
   550 00001A4C B608530FB82FB80455-
   550 00001A55 0100               
   551 00001A57 FDA7010082A732B701-          DB 253,167,1,0,130,167,50,183,1,0,90,167,47,183,1,0,253,167,1,0
   551 00001A60 005AA72FB70100FDA7-
   551 00001A69 0100               
   552 00001A6B 82A732B70100484B07-          DB 130,167,50,183,1,0,72,75,7,176,39,176,13,67,7,177,39,177,13,68
   552 00001A74 B027B00D4307B127B1-
   552 00001A7D 0D44               
   553 00001A7F 0AB32AB34C4B07B627-          DB 10,179,42,179,76,75,7,182,39,182,33,83,90,167,47,183,6,0,7,176
   553 00001A88 B621535AA72FB70600-
   553 00001A91 07B0               
   554 00001A93 27B0004307B127B100-          DB 39,176,0,67,7,177,39,177,0,68,10,179,42,179,7,182,39,182,8,83
   554 00001A9C 440AB32AB307B627B6-
   554 00001AA5 0853               
   555 00001AA7 0BB82BB809550100FD-          DB 11,184,43,184,9,85,1,0,253,167,1,0,130,167,50,183,1,0,90,167
   555 00001AB0 A7010082A732B70100-
   555 00001AB9 5AA7               
   556 00001ABB 2FB70100FDA7010082-          DB 47,183,1,0,253,167,1,0,130,167,50,183,1,0,11,176,43,176,13,67
   556 00001AC4 A732B701000BB02BB0-
   556 00001ACD 0D43               
   557 00001ACF 0BB12BB10D440AB32A-          DB 11,177,43,177,13,68,10,179,42,179,7,182,39,182,33,83,90,167,47,183
   557 00001AD8 B307B627B621535AA7-
   557 00001AE1 2FB7               
   558 00001AE3 0600404B0BB02BB000-          DB 6,0,64,75,11,176,43,176,0,67,7,177,39,177,0,68,10,178,42,178
   558 00001AEC 4307B127B100440AB2-
   558 00001AF5 2AB2               
   559 00001AF7 00450AB32AB307B627-          DB 0,69,10,179,42,179,7,182,39,182,8,83,141,168,15,184,47,184,4,85
   559 00001B00 B608538DA80FB82FB8-
   559 00001B09 0455               
   560 00001B0B 0100FDA7010082A732-          DB 1,0,253,167,1,0,130,167,50,183,1,0,90,167,47,183,1,0,253,167
   560 00001B14 B701005AA72FB70100-
   560 00001B1D FDA7               
   561 00001B1F 010082A732B7010048-          DB 1,0,130,167,50,183,1,0,72,75,11,176,43,176,13,67,7,177,39,177
   561 00001B28 4B0BB02BB00D4307B1-
   561 00001B31 27B1               
   562 00001B33 0D440AB32AB34C4B07-          DB 13,68,10,179,42,179,76,75,7,182,39,182,33,83,90,167,47,183,6,0
   562 00001B3C B627B621535AA72FB7-
   562 00001B45 0600               
   563 00001B47 0FB02FB000430BB12B-          DB 15,176,47,176,0,67,11,177,43,177,0,68,10,179,42,179,7,182,39,182
   563 00001B50 B100440AB32AB307B6-
   563 00001B59 27B6               
   564 00001B5B 08530BB82BB8095501-          DB 8,83,11,184,43,184,9,85,1,0,253,167,1,0,130,167,50,183,1,0
   564 00001B64 00FDA7010082A732B7-
   564 00001B6D 0100               
   565 00001B6F 5AA72FB70100FDA701-          DB 90,167,47,183,1,0,253,167,1,0,130,167,50,183,1,0,11,176,43,176
   565 00001B78 0082A732B701000BB0-
   565 00001B81 2BB0               
   566 00001B83 0D4307B127B10D440A-          DB 13,67,7,177,39,177,13,68,10,179,42,179,7,182,39,182,33,83,90,167
   566 00001B8C B32AB307B627B62153-
   566 00001B95 5AA7               
   567 00001B97 2FB70600404B0BB02B-          DB 47,183,6,0,64,75,11,176,43,176,0,67,7,177,39,177,0,68,10,178
   567 00001BA0 B0004307B127B10044-
   567 00001BA9 0AB2               
   568 00001BAB 2AB203450AB32AB307-          DB 42,178,3,69,10,179,42,179,7,182,39,182,8,83,251,168,14,184,46,184
   568 00001BB4 B627B60853FBA80EB8-
   568 00001BBD 2EB8               
   569 00001BBF 04550100FDA7010082-          DB 4,85,1,0,253,167,1,0,130,167,50,183,1,0,90,167,47,183,1,0
   569 00001BC8 A732B701005AA72FB7-
   569 00001BD1 0100               
   570 00001BD3 FDA7010082A732B701-          DB 253,167,1,0,130,167,50,183,1,0,72,75,15,176,47,176,13,67,11,177
   570 00001BDC 00484B0FB02FB00D43-
   570 00001BE5 0BB1               
   571 00001BE7 2BB10D440AB32AB34C-          DB 43,177,13,68,10,179,42,179,76,75,7,182,39,182,33,83,90,167,47,183
   571 00001BF0 4B07B627B621535AA7-
   571 00001BF9 2FB7               
   572 00001BFB 06000BB02BB0004307-          DB 6,0,11,176,43,176,0,67,7,177,39,177,0,68,10,179,42,179,7,182
   572 00001C04 B127B100440AB32AB3-
   572 00001C0D 07B6               
   573 00001C0F 27B608530AB82AB809-          DB 39,182,8,83,10,184,42,184,9,85,1,0,253,167,1,0,130,167,50,183
   573 00001C18 550100FDA7010082A7-
   573 00001C21 32B7               
   574 00001C23 01005AA72FB70100FD-          DB 1,0,90,167,47,183,1,0,253,167,2,0,11,176,43,176,13,67,7,177
   574 00001C2C A702000BB02BB00D43-
   574 00001C35 07B1               
   575 00001C37 27B10D440AB32AB307-          DB 39,177,13,68,10,179,42,179,7,182,39,182,43,83,90,167,7,0,64,75
   575 00001C40 B627B62B535AA70700-
   575 00001C49 404B               
   576 00001C4B 0BB02BB000430BB12B-          DB 11,176,43,176,0,67,11,177,43,177,0,68,10,178,42,178,0,69,10,179
   576 00001C54 B100440AB22AB20045-
   576 00001C5D 0AB3               
   577 00001C5F 2AB3FBA606B626B604-          DB 42,179,251,166,6,182,38,182,4,83,251,167,14,183,46,183,10,184,42,184
   577 00001C68 53FBA70EB72EB70AB8-
   577 00001C71 2AB8               
   578 00001C73 045501008DA72FB701-          DB 4,85,1,0,141,167,47,183,1,0,61,167,50,183,1,0,251,167,46,183
   578 00001C7C 003DA732B70100FBA7-
   578 00001C85 2EB7               
   579 00001C87 01008DA72FB701003D-          DB 1,0,141,167,47,183,1,0,61,167,50,183,1,0,72,75,7,176,39,176
   579 00001C90 A732B70100484B07B0-
   579 00001C99 27B0               
   580 00001C9B 0D4307B127B10D440A-          DB 13,67,7,177,39,177,13,68,10,179,42,179,76,75,6,182,38,182,33,83
   580 00001CA4 B32AB34C4B06B626B6-
   580 00001CAD 2153               
   581 00001CAF FBA72EB7060007B027-          DB 251,167,46,183,6,0,7,176,39,176,0,67,7,177,39,177,0,68,10,179
   581 00001CB8 B0004307B127B10044-
   581 00001CC1 0AB3               
   582 00001CC3 2AB306B626B6085306-          DB 42,179,6,182,38,182,8,83,6,184,38,184,9,85,1,0,141,167,47,183
   582 00001CCC B826B8095501008DA7-
   582 00001CD5 2FB7               
   583 00001CD7 01003DA732B70100FB-          DB 1,0,61,167,50,183,1,0,251,167,46,183,1,0,141,167,47,183,1,0
   583 00001CE0 A72EB701008DA72FB7-
   583 00001CE9 0100               
   584 00001CEB 3DA732B701000BB02B-          DB 61,167,50,183,1,0,11,176,43,176,13,67,11,177,43,177,13,68,10,179
   584 00001CF4 B00D430BB12BB10D44-
   584 00001CFD 0AB3               
   585 00001CFF 2AB306B626B62153FB-          DB 42,179,6,182,38,182,33,83,251,167,46,183,6,0,64,75,7,176,39,176
   585 00001D08 A72EB70600404B07B0-
   585 00001D11 27B0               
   586 00001D13 004307B127B100440A-          DB 0,67,7,177,39,177,0,68,10,178,42,178,3,69,10,179,42,179,6,182
   586 00001D1C B22AB203450AB32AB3-
   586 00001D25 06B6               
   587 00001D27 26B608530EB82EB804-          DB 38,182,8,83,14,184,46,184,4,85,1,0,141,167,47,183,1,0,61,167
   587 00001D30 5501008DA72FB70100-
   587 00001D39 3DA7               
   588 00001D3B 32B70100FBA72EB701-          DB 50,183,1,0,251,167,46,183,1,0,141,167,47,183,1,0,61,167,50,183
   588 00001D44 008DA72FB701003DA7-
   588 00001D4D 32B7               
   589 00001D4F 0100484B07B027B00D-          DB 1,0,72,75,7,176,39,176,13,67,7,177,39,177,13,68,10,179,42,179
   589 00001D58 4307B127B10D440AB3-
   589 00001D61 2AB3               
   590 00001D63 4C4B06B626B62153FB-          DB 76,75,6,182,38,182,33,83,251,167,46,183,6,0,11,176,43,176,0,67
   590 00001D6C A72EB706000BB02BB0-
   590 00001D75 0043               
   591 00001D77 0BB12BB100440AB32A-          DB 11,177,43,177,0,68,10,179,42,179,6,182,38,182,8,83,10,184,42,184
   591 00001D80 B306B626B608530AB8-
   591 00001D89 2AB8               
   592 00001D8B 095501008DA72FB701-          DB 9,85,1,0,141,167,47,183,1,0,61,167,50,183,1,0,251,167,46,183
   592 00001D94 003DA732B70100FBA7-
   592 00001D9D 2EB7               
   593 00001D9F 01008DA72FB701003D-          DB 1,0,141,167,47,183,1,0,61,167,50,183,1,0,7,176,39,176,13,67
   593 00001DA8 A732B7010007B027B0-
   593 00001DB1 0D43               
   594 00001DB3 07B127B10D440AB32A-          DB 7,177,39,177,13,68,10,179,42,179,6,182,38,182,33,83,251,167,46,183
   594 00001DBC B306B626B62153FBA7-
   594 00001DC5 2EB7               
   595 00001DC7 0600404B8DA007B027-          DB 6,0,64,75,141,160,7,176,39,176,0,67,141,161,7,177,39,177,0,68
   595 00001DD0 B000438DA107B127B1-
   595 00001DD9 0044               
   596 00001DDB 0AB22AB200450AB32A-          DB 10,178,42,178,0,69,10,179,42,179,141,166,7,182,39,182,4,83,252,168
   596 00001DE4 B38DA607B627B60453-
   596 00001DED FCA8               
   597 00001DEF 12B832B8045501008D-          DB 18,184,50,184,4,85,1,0,141,167,47,183,1,0,61,167,50,183,1,0
   597 00001DF8 A72FB701003DA732B7-
   597 00001E01 0100               
   598 00001E03 FBA72EB701008DA72F-          DB 251,167,46,183,1,0,141,167,47,183,1,0,61,167,50,183,1,0,72,75
   598 00001E0C B701003DA732B70100-
   598 00001E15 484B               
   599 00001E17 5AA00BB02BB00D435A-          DB 90,160,11,176,43,176,13,67,90,161,11,177,43,177,13,68,10,179,42,179
   599 00001E20 A10BB12BB10D440AB3-
   599 00001E29 2AB3               
   600 00001E2B 4C4BFBA606B626B621-          DB 76,75,251,166,6,182,38,182,33,83,251,167,46,183,6,0,141,160,7,176
   600 00001E34 53FBA72EB706008DA0-
   600 00001E3D 07B0               
   601 00001E3F 27B000438DA107B127-          DB 39,176,0,67,141,161,7,177,39,177,0,68,10,179,42,179,6,182,38,182
   601 00001E48 B100440AB32AB306B6-
   601 00001E51 26B6               
   602 00001E53 0853FBA80AB82AB809-          DB 8,83,251,168,10,184,42,184,9,85,1,0,141,167,47,183,1,0,61,167
   602 00001E5C 5501008DA72FB70100-
   602 00001E65 3DA7               
   603 00001E67 32B70100FBA72EB701-          DB 50,183,1,0,251,167,46,183,1,0,141,167,47,183,1,0,61,167,50,183
   603 00001E70 008DA72FB701003DA7-
   603 00001E79 32B7               
   604 00001E7B 010007B027B00D4307-          DB 1,0,7,176,39,176,13,67,7,177,39,177,13,68,10,179,42,179,6,182
   604 00001E84 B127B10D440AB32AB3-
   604 00001E8D 06B6               
   605 00001E8F 26B62153FBA72EB706-          DB 38,182,33,83,251,167,46,183,6,0,64,75,11,176,43,176,0,67,11,177
   605 00001E98 00404B0BB02BB00043-
   605 00001EA1 0BB1               
   606 00001EA3 2BB100440AB22AB203-          DB 43,177,0,68,10,178,42,178,3,69,10,179,42,179,15,180,47,180,23,76
   606 00001EAC 450AB32AB30FB42FB4-
   606 00001EB5 174C               
   607 00001EB7 0BB52BB5174D06B626-          DB 11,181,43,181,23,77,6,182,38,182,8,83,14,183,46,183,60,168,14,184
   607 00001EC0 B608530EB72EB73CA8-
   607 00001EC9 0EB8               
   608 00001ECB 2EB8045501008DA72F-          DB 46,184,4,85,1,0,141,167,47,183,1,0,94,167,50,183,1,0,251,167
   608 00001ED4 B701005EA732B70100-
   608 00001EDD FBA7               
   609 00001EDF 2EB701008DA72FB701-          DB 46,183,1,0,141,167,47,183,1,0,94,167,50,183,1,0,72,75,7,176
   609 00001EE8 005EA732B70100484B-
   609 00001EF1 07B0               
   610 00001EF3 27B00D4307B127B10D-          DB 39,176,13,67,7,177,39,177,13,68,10,179,42,179,76,75,15,180,47,180
   610 00001EFC 440AB32AB34C4B0FB4-
   610 00001F05 2FB4               
   611 00001F07 124C0BB52BB5124D06-          DB 18,76,11,181,43,181,18,77,6,182,38,182,33,83,251,167,46,183,6,0
   611 00001F10 B626B62153FBA72EB7-
   611 00001F19 0600               
   612 00001F1B 07B027B0004307B127-          DB 7,176,39,176,0,67,7,177,39,177,0,68,10,179,42,179,15,180,47,180
   612 00001F24 B100440AB32AB30FB4-
   612 00001F2D 2FB4               
   613 00001F2F 0D4C0BB52BB50D4D06-          DB 13,76,11,181,43,181,13,77,6,182,38,182,8,83,129,168,14,184,46,184
   613 00001F38 B626B6085381A80EB8-
   613 00001F41 2EB8               
   614 00001F43 095501008DA72FB701-          DB 9,85,1,0,141,167,47,183,1,0,94,167,50,183,1,0,251,167,46,183
   614 00001F4C 005EA732B70100FBA7-
   614 00001F55 2EB7               
   615 00001F57 01008DA72FB701005E-          DB 1,0,141,167,47,183,1,0,94,167,50,183,1,0,11,176,43,176,13,67
   615 00001F60 A732B701000BB02BB0-
   615 00001F69 0D43               
   616 00001F6B 0BB12BB10D440AB32A-          DB 11,177,43,177,13,68,10,179,42,179,15,180,47,180,11,76,11,181,43,181
   616 00001F74 B30FB42FB40B4C0BB5-
   616 00001F7D 2BB5               
   617 00001F7F 0B4D06B626B62B53FB-          DB 11,77,6,182,38,182,43,83,251,167,46,183,6,0,64,75,90,160,7,176
   617 00001F88 A72EB70600404B5AA0-
   617 00001F91 07B0               
   618 00001F93 27B000435AA107B127-          DB 39,176,0,67,90,161,7,177,39,177,0,68,10,178,42,178,0,69,10,179
   618 00001F9C B100440AB22AB20045-
   618 00001FA5 0AB3               
   619 00001FA7 2AB30FB42FB4004C0B-          DB 42,179,15,180,47,180,0,76,11,181,43,181,8,77,141,166,7,182,39,182
   619 00001FB0 B52BB5084D8DA607B6-
   619 00001FB9 27B6               
   620 00001FBB 04535AA70FB72FB75A-          DB 4,83,90,167,15,183,47,183,90,168,11,184,43,184,4,85,1,0,253,167
   620 00001FC4 A80BB82BB804550100-
   620 00001FCD FDA7               
   621 00001FCF 010082A732B701005A-          DB 1,0,130,167,50,183,1,0,90,167,47,183,1,0,253,167,1,0,130,167
   621 00001FD8 A72FB70100FDA70100-
   621 00001FE1 82A7               
   622 00001FE3 32B70100484B8DA007-          DB 50,183,1,0,72,75,141,160,7,176,39,176,13,67,141,161,7,177,39,177
   622 00001FEC B027B00D438DA107B1-
   622 00001FF5 27B1               
   623 00001FF7 0D440AB32AB34C4B5A-          DB 13,68,10,179,42,179,76,75,90,166,7,182,39,182,33,83,90,167,47,183
   623 00002000 A607B627B621535AA7-
   623 00002009 2FB7               
   624 0000200B 06005AA007B027B000-          DB 6,0,90,160,7,176,39,176,0,67,90,161,7,177,39,177,0,68,10,179
   624 00002014 435AA107B127B10044-
   624 0000201D 0AB3               
   625 0000201F 2AB307B627B6085307-          DB 42,179,7,182,39,182,8,83,7,184,39,184,9,85,1,0,253,167,1,0
   625 00002028 B827B809550100FDA7-
   625 00002031 0100               
   626 00002033 82A732B701005AA72F-          DB 130,167,50,183,1,0,90,167,47,183,1,0,253,167,1,0,130,167,50,183
   626 0000203C B70100FDA7010082A7-
   626 00002045 32B7               
   627 00002047 010007B027B00D4307-          DB 1,0,7,176,39,176,13,67,7,177,39,177,13,68,10,179,42,179,7,182
   627 00002050 B127B10D440AB32AB3-
   627 00002059 07B6               
   628 0000205B 27B621535AA72FB706-          DB 39,182,33,83,90,167,47,183,6,0,64,75,11,176,43,176,0,67,11,177
   628 00002064 00404B0BB02BB00043-
   628 0000206D 0BB1               
   629 0000206F 2BB100440AB22AB203-          DB 43,177,0,68,10,178,42,178,3,69,10,179,42,179,7,182,39,182,8,83
   629 00002078 450AB32AB307B627B6-
   629 00002081 0853               
   630 00002083 0FB82FB804550100FD-          DB 15,184,47,184,4,85,1,0,253,167,1,0,130,167,50,183,1,0,90,167
   630 0000208C A7010082A732B70100-
   630 00002095 5AA7               
   631 00002097 2FB70100FDA7010082-          DB 47,183,1,0,253,167,1,0,130,167,50,183,1,0,72,75,7,176,39,176
   631 000020A0 A732B70100484B07B0-
   631 000020A9 27B0               
   632 000020AB 0D4307B127B10D440A-          DB 13,67,7,177,39,177,13,68,10,179,42,179,76,75,7,182,39,182,33,83
   632 000020B4 B32AB34C4B07B627B6-
   632 000020BD 2153               
   633 000020BF 5AA72FB7060007B027-          DB 90,167,47,183,6,0,7,176,39,176,0,67,7,177,39,177,0,68,10,179
   633 000020C8 B0004307B127B10044-
   633 000020D1 0AB3               
   634 000020D3 2AB307B627B608530B-          DB 42,179,7,182,39,182,8,83,11,184,43,184,9,85,1,0,253,167,1,0
   634 000020DC B82BB809550100FDA7-
   634 000020E5 0100               
   635 000020E7 82A732B701005AA72F-          DB 130,167,50,183,1,0,90,167,47,183,1,0,253,167,1,0,130,167,50,183
   635 000020F0 B70100FDA7010082A7-
   635 000020F9 32B7               
   636 000020FB 01000BB02BB00D430B-          DB 1,0,11,176,43,176,13,67,11,177,43,177,13,68,10,179,42,179,7,182
   636 00002104 B12BB10D440AB32AB3-
   636 0000210D 07B6               
   637 0000210F 27B621535AA72FB706-          DB 39,182,33,83,90,167,47,183,6,0,64,75,11,176,43,176,0,67,7,177
   637 00002118 00404B0BB02BB00043-
   637 00002121 07B1               
   638 00002123 27B100440AB22AB200-          DB 39,177,0,68,10,178,42,178,0,69,10,179,42,179,7,182,39,182,8,83
   638 0000212C 450AB32AB307B627B6-
   638 00002135 0853               
   639 00002137 8DA80FB82FB8045501-          DB 141,168,15,184,47,184,4,85,1,0,253,167,1,0,130,167,50,183,1,0
   639 00002140 00FDA7010082A732B7-
   639 00002149 0100               
   640 0000214B 5AA72FB70100FDA701-          DB 90,167,47,183,1,0,253,167,1,0,130,167,50,183,1,0,72,75,11,176
   640 00002154 0082A732B70100484B-
   640 0000215D 0BB0               
   641 0000215F 2BB00D4307B127B10D-          DB 43,176,13,67,7,177,39,177,13,68,10,179,42,179,76,75,7,182,39,182
   641 00002168 440AB32AB34C4B07B6-
   641 00002171 27B6               
   642 00002173 21535AA72FB706000F-          DB 33,83,90,167,47,183,6,0,15,176,47,176,0,67,11,177,43,177,0,68
   642 0000217C B02FB000430BB12BB1-
   642 00002185 0044               
   643 00002187 0AB32AB307B627B608-          DB 10,179,42,179,7,182,39,182,8,83,11,184,43,184,9,85,1,0,253,167
   643 00002190 530BB82BB809550100-
   643 00002199 FDA7               
   644 0000219B 010082A732B701005A-          DB 1,0,130,167,50,183,1,0,90,167,47,183,1,0,253,167,1,0,130,167
   644 000021A4 A72FB70100FDA70100-
   644 000021AD 82A7               
   645 000021AF 32B701000BB02BB00D-          DB 50,183,1,0,11,176,43,176,13,67,7,177,39,177,13,68,10,179,42,179
   645 000021B8 4307B127B10D440AB3-
   645 000021C1 2AB3               
   646 000021C3 07B627B621535AA72F-          DB 7,182,39,182,33,83,90,167,47,183,6,0,64,75,11,176,43,176,0,67
   646 000021CC B70600404B0BB02BB0-
   646 000021D5 0043               
   647 000021D7 07B127B100440AB22A-          DB 7,177,39,177,0,68,10,178,42,178,3,69,10,179,42,179,7,182,39,182
   647 000021E0 B203450AB32AB307B6-
   647 000021E9 27B6               
   648 000021EB 0853FBA80EB82EB804-          DB 8,83,251,168,14,184,46,184,4,85,1,0,253,167,1,0,130,167,50,183
   648 000021F4 550100FDA7010082A7-
   648 000021FD 32B7               
   649 000021FF 01005AA72FB70100FD-          DB 1,0,90,167,47,183,1,0,253,167,1,0,130,167,50,183,1,0,72,75
   649 00002208 A7010082A732B70100-
   649 00002211 484B               
   650 00002213 0FB02FB00D430BB12B-          DB 15,176,47,176,13,67,11,177,43,177,13,68,10,179,42,179,76,75,7,182
   650 0000221C B10D440AB32AB34C4B-
   650 00002225 07B6               
   651 00002227 27B621535AA72FB706-          DB 39,182,33,83,90,167,47,183,6,0,11,176,43,176,0,67,7,177,39,177
   651 00002230 000BB02BB0004307B1-
   651 00002239 27B1               
   652 0000223B 00440AB32AB307B627-          DB 0,68,10,179,42,179,7,182,39,182,8,83,10,184,42,184,9,85,1,0
   652 00002244 B608530AB82AB80955-
   652 0000224D 0100               
   653 0000224F FDA7010082A732B701-          DB 253,167,1,0,130,167,50,183,1,0,90,167,47,183,1,0,253,167,1,0
   653 00002258 005AA72FB70100FDA7-
   653 00002261 0100               
   654 00002263 82A732B701000BB02B-          DB 130,167,50,183,1,0,11,176,43,176,13,67,7,177,39,177,13,68,10,179
   654 0000226C B00D4307B127B10D44-
   654 00002275 0AB3               
   655 00002277 2AB307B627B62B535A-          DB 42,179,7,182,39,182,43,83,90,167,47,183,6,0,64,75,11,176,43,176
   655 00002280 A72FB70600404B0BB0-
   655 00002289 2BB0               
   656 0000228B 00430BB12BB100440A-          DB 0,67,11,177,43,177,0,68,10,178,42,178,0,69,10,179,42,179,141,166
   656 00002294 B22AB200450AB32AB3-
   656 0000229D 8DA6               
   657 0000229F 07B627B604530FB72F-          DB 7,182,39,182,4,83,15,183,47,183,90,168,11,184,43,184,4,85,1,0
   657 000022A8 B75AA80BB82BB80455-
   657 000022B1 0100               
   658 000022B3 FDA701005EA732B701-          DB 253,167,1,0,94,167,50,183,1,0,90,167,47,183,1,0,253,167,1,0
   658 000022BC 005AA72FB70100FDA7-
   658 000022C5 0100               
   659 000022C7 5EA732B70100484B07-          DB 94,167,50,183,1,0,72,75,7,176,39,176,13,67,7,177,39,177,13,68
   659 000022D0 B027B00D4307B127B1-
   659 000022D9 0D44               
   660 000022DB 0AB32AB34C4B5AA607-          DB 10,179,42,179,76,75,90,166,7,182,39,182,33,83,90,167,47,183,6,0
   660 000022E4 B627B621535AA72FB7-
   660 000022ED 0600               
   661 000022EF 07B027B0004307B127-          DB 7,176,39,176,0,67,7,177,39,177,0,68,10,179,42,179,7,182,39,182
   661 000022F8 B100440AB32AB307B6-
   661 00002301 27B6               
   662 00002303 085307B827B8095501-          DB 8,83,7,184,39,184,9,85,1,0,253,167,1,0,94,167,50,183,1,0
   662 0000230C 00FDA701005EA732B7-
   662 00002315 0100               
   663 00002317 5AA72FB70100FDA701-          DB 90,167,47,183,1,0,253,167,1,0,94,167,50,183,1,0,11,176,43,176
   663 00002320 005EA732B701000BB0-
   663 00002329 2BB0               
   664 0000232B 0D430BB12BB10D440A-          DB 13,67,11,177,43,177,13,68,10,179,42,179,7,182,39,182,33,83,90,167
   664 00002334 B32AB307B627B62153-
   664 0000233D 5AA7               
   665 0000233F 2FB70600404B07B027-          DB 47,183,6,0,64,75,7,176,39,176,0,67,7,177,39,177,0,68,10,178
   665 00002348 B0004307B127B10044-
   665 00002351 0AB2               
   666 00002353 2AB203450AB32AB307-          DB 42,178,3,69,10,179,42,179,7,182,39,182,8,83,253,168,15,184,47,184
   666 0000235C B627B60853FDA80FB8-
   666 00002365 2FB8               
   667 00002367 04550100FDA701005E-          DB 4,85,1,0,253,167,1,0,94,167,50,183,1,0,90,167,47,183,1,0
   667 00002370 A732B701005AA72FB7-
   667 00002379 0100               
   668 0000237B FDA701005EA732B701-          DB 253,167,1,0,94,167,50,183,1,0,72,75,7,176,39,176,13,67,7,177
   668 00002384 00484B07B027B00D43-
   668 0000238D 07B1               
   669 0000238F 27B10D440AB32AB34C-          DB 39,177,13,68,10,179,42,179,76,75,7,182,39,182,33,83,90,167,47,183
   669 00002398 4B07B627B621535AA7-
   669 000023A1 2FB7               
   670 000023A3 06000BB02BB000430B-          DB 6,0,11,176,43,176,0,67,11,177,43,177,0,68,10,179,42,179,7,182
   670 000023AC B12BB100440AB32AB3-
   670 000023B5 07B6               
   671 000023B7 27B608530BB82BB809-          DB 39,182,8,83,11,184,43,184,9,85,1,0,253,167,1,0,94,167,50,183
   671 000023C0 550100FDA701005EA7-
   671 000023C9 32B7               
   672 000023CB 01005AA72FB70100FD-          DB 1,0,90,167,47,183,1,0,253,167,1,0,94,167,50,183,1,0,7,176
   672 000023D4 A701005EA732B70100-
   672 000023DD 07B0               
   673 000023DF 27B00D4307B127B10D-          DB 39,176,13,67,7,177,39,177,13,68,10,179,42,179,7,182,39,182,33,83
   673 000023E8 440AB32AB307B627B6-
   673 000023F1 2153               
   674 000023F3 5AA72FB70600404B8D-          DB 90,167,47,183,6,0,64,75,141,160,7,176,39,176,0,67,141,161,7,177
   674 000023FC A007B027B000438DA1-
   674 00002405 07B1               
   675 00002407 27B100440AB22AB200-          DB 39,177,0,68,10,178,42,178,0,69,10,179,42,179,7,182,39,182,8,83
   675 00002410 450AB32AB307B627B6-
   675 00002419 0853               
   676 0000241B 3DA812B832B8045501-          DB 61,168,18,184,50,184,4,85,1,0,253,167,1,0,94,167,50,183,1,0
   676 00002424 00FDA701005EA732B7-
   676 0000242D 0100               
   677 0000242F 5AA72FB70100FDA701-          DB 90,167,47,183,1,0,253,167,1,0,94,167,50,183,1,0,72,75,90,160
   677 00002438 005EA732B70100484B-
   677 00002441 5AA0               
   678 00002443 0BB02BB00D435AA10B-          DB 11,176,43,176,13,67,90,161,11,177,43,177,13,68,10,179,42,179,76,75
   678 0000244C B12BB10D440AB32AB3-
   678 00002455 4C4B               
   679 00002457 07B627B621535AA72F-          DB 7,182,39,182,33,83,90,167,47,183,6,0,141,160,7,176,39,176,0,67
   679 00002460 B706008DA007B027B0-
   679 00002469 0043               
   680 0000246B 8DA107B127B100440A-          DB 141,161,7,177,39,177,0,68,10,179,42,179,7,182,39,182,8,83,60,168
   680 00002474 B32AB307B627B60853-
   680 0000247D 3CA8               
   681 0000247F 0EB82EB809550100FD-          DB 14,184,46,184,9,85,1,0,253,167,1,0,94,167,50,183,1,0,90,167
   681 00002488 A701005EA732B70100-
   681 00002491 5AA7               
   682 00002493 2FB70100FDA701005E-          DB 47,183,1,0,253,167,1,0,94,167,50,183,1,0,7,176,39,176,13,67
   682 0000249C A732B7010007B027B0-
   682 000024A5 0D43               
   683 000024A7 07B127B10D440AB32A-          DB 7,177,39,177,13,68,10,179,42,179,7,182,39,182,33,83,90,167,47,183
   683 000024B0 B307B627B621535AA7-
   683 000024B9 2FB7               
   684 000024BB 0600404B0BB02BB000-          DB 6,0,64,75,11,176,43,176,0,67,11,177,43,177,0,68,10,178,42,178
   684 000024C4 430BB12BB100440AB2-
   684 000024CD 2AB2               
   685 000024CF 03450AB32AB307B627-          DB 3,69,10,179,42,179,7,182,39,182,8,83,15,183,47,183,141,168,15,184
   685 000024D8 B608530FB72FB78DA8-
   685 000024E1 0FB8               
   686 000024E3 2FB804550100FDA701-          DB 47,184,4,85,1,0,253,167,1,0,168,167,50,183,1,0,90,167,47,183
   686 000024EC 00A8A732B701005AA7-
   686 000024F5 2FB7               
   687 000024F7 0100FDA70100A8A732-          DB 1,0,253,167,1,0,168,167,50,183,1,0,72,75,7,176,39,176,13,67
   687 00002500 B70100484B07B027B0-
   687 00002509 0D43               
   688 0000250B 07B127B10D440AB32A-          DB 7,177,39,177,13,68,10,179,42,179,76,75,7,182,39,182,33,83,90,167
   688 00002514 B34C4B07B627B62153-
   688 0000251D 5AA7               
   689 0000251F 2FB7060007B027B000-          DB 47,183,6,0,7,176,39,176,0,67,7,177,39,177,0,68,10,178,42,178
   689 00002528 4307B127B100440AB2-
   689 00002531 2AB2               
   690 00002533 00450AB32AB30FB42F-          DB 0,69,10,179,42,179,15,180,47,180,11,181,43,181,7,182,39,182,8,83
   690 0000253C B40BB52BB507B627B6-
   690 00002545 0853               
   691 00002547 0BB82BB809550100FD-          DB 11,184,43,184,9,85,1,0,253,167,1,0,168,167,50,183,1,0,90,167
   691 00002550 A70100A8A732B70100-
   691 00002559 5AA7               
   692 0000255B 2FB70100FDA70100A8-          DB 47,183,1,0,253,167,1,0,168,167,50,183,1,0,11,176,43,176,13,67
   692 00002564 A732B701000BB02BB0-
   692 0000256D 0D43               
   693 0000256F 0BB12BB10D440AB32A-          DB 11,177,43,177,13,68,10,179,42,179,7,182,39,182,43,83,90,167,47,183
   693 00002578 B307B627B62B535AA7-
   693 00002581 2FB7               
   694 00002583 0600404B5AA007B027-          DB 6,0,64,75,90,160,7,176,39,176,0,67,90,161,7,177,39,177,0,68
   694 0000258C B000435AA107B127B1-
   694 00002595 0044               
   695 00002597 0AB22AB20AB32AB30F-          DB 10,178,42,178,10,179,42,179,15,180,47,180,11,181,43,181,7,182,39,182
   695 000025A0 B42FB40BB52BB507B6-
   695 000025A9 27B6               
   696 000025AB 04530FB72FB75AA80B-          DB 4,83,15,183,47,183,90,168,11,184,43,184,4,85,1,0,253,167,1,0
   696 000025B4 B82BB804550100FDA7-
   696 000025BD 0100               
   697 000025BF 82A732B701005AA72F-          DB 130,167,50,183,1,0,90,167,47,183,1,0,253,167,1,0,130,167,50,183
   697 000025C8 B70100FDA7010082A7-
   697 000025D1 32B7               
   698 000025D3 0100484B8DA007B027-          DB 1,0,72,75,141,160,7,176,39,176,13,67,141,161,7,177,39,177,13,68
   698 000025DC B00D438DA107B127B1-
   698 000025E5 0D44               
   699 000025E7 0AB32AB34C4B07B627-          DB 10,179,42,179,76,75,7,182,39,182,33,83,90,167,47,183,6,0,90,160
   699 000025F0 B621535AA72FB70600-
   699 000025F9 5AA0               
   700 000025FB 07B027B000435AA107-          DB 7,176,39,176,0,67,90,161,7,177,39,177,0,68,10,179,42,179,7,182
   700 00002604 B127B100440AB32AB3-
   700 0000260D 07B6               
   701 0000260F 27B6085307B827B809-          DB 39,182,8,83,7,184,39,184,9,85,1,0,253,167,1,0,130,167,50,183
   701 00002618 550100FDA7010082A7-
   701 00002621 32B7               
   702 00002623 01005AA72FB70100FD-          DB 1,0,90,167,47,183,1,0,253,167,1,0,130,167,50,183,1,0,7,176
   702 0000262C A7010082A732B70100-
   702 00002635 07B0               
   703 00002637 27B00D4307B127B10D-          DB 39,176,13,67,7,177,39,177,13,68,10,179,42,179,7,182,39,182,33,83
   703 00002640 440AB32AB307B627B6-
   703 00002649 2153               
   704 0000264B 5AA72FB70600404B0B-          DB 90,167,47,183,6,0,64,75,11,176,43,176,0,67,11,177,43,177,0,68
   704 00002654 B02BB000430BB12BB1-
   704 0000265D 0044               
   705 0000265F 0AB22AB203450AB32A-          DB 10,178,42,178,3,69,10,179,42,179,7,182,39,182,8,83,15,184,47,184
   705 00002668 B307B627B608530FB8-
   705 00002671 2FB8               
   706 00002673 04550100FDA7010082-          DB 4,85,1,0,253,167,1,0,130,167,50,183,1,0,90,167,47,183,1,0
   706 0000267C A732B701005AA72FB7-
   706 00002685 0100               
   707 00002687 FDA7010082A732B701-          DB 253,167,1,0,130,167,50,183,1,0,72,75,7,176,39,176,13,67,7,177
   707 00002690 00484B07B027B00D43-
   707 00002699 07B1               
   708 0000269B 27B10D440AB32AB34C-          DB 39,177,13,68,10,179,42,179,76,75,7,182,39,182,33,83,90,167,47,183
   708 000026A4 4B07B627B621535AA7-
   708 000026AD 2FB7               
   709 000026AF 060007B027B0004307-          DB 6,0,7,176,39,176,0,67,7,177,39,177,0,68,10,179,42,179,7,182
   709 000026B8 B127B100440AB32AB3-
   709 000026C1 07B6               
   710 000026C3 27B608530BB82BB809-          DB 39,182,8,83,11,184,43,184,9,85,1,0,253,167,1,0,130,167,50,183
   710 000026CC 550100FDA7010082A7-
   710 000026D5 32B7               
   711 000026D7 01005AA72FB70100FD-          DB 1,0,90,167,47,183,1,0,253,167,1,0,130,167,50,183,1,0,11,176
   711 000026E0 A7010082A732B70100-
   711 000026E9 0BB0               
   712 000026EB 2BB00D430BB12BB10D-          DB 43,176,13,67,11,177,43,177,13,68,10,179,42,179,7,182,39,182,33,83
   712 000026F4 440AB32AB307B627B6-
   712 000026FD 2153               
   713 000026FF 5AA72FB70600404B0B-          DB 90,167,47,183,6,0,64,75,11,176,43,176,0,67,7,177,39,177,0,68
   713 00002708 B02BB0004307B127B1-
   713 00002711 0044               
   714 00002713 0AB22AB200450AB32A-          DB 10,178,42,178,0,69,10,179,42,179,7,182,39,182,8,83,141,168,15,184
   714 0000271C B307B627B608538DA8-
   714 00002725 0FB8               
   715 00002727 2FB804550100FDA701-          DB 47,184,4,85,1,0,253,167,1,0,130,167,50,183,1,0,90,167,47,183
   715 00002730 0082A732B701005AA7-
   715 00002739 2FB7               
   716 0000273B 020082A732B7010048-          DB 2,0,130,167,50,183,1,0,72,75,11,176,43,176,13,67,7,177,39,177
   716 00002744 4B0BB02BB00D4307B1-
   716 0000274D 27B1               
   717 0000274F 0D440AB32AB34C4B07-          DB 13,68,10,179,42,179,76,75,7,182,39,182,33,83,90,167,47,183,7,0
   717 00002758 B627B621535AA72FB7-
   717 00002761 0700               
   718 00002763 0FB02FB000430BB12B-          DB 15,176,47,176,0,67,11,177,43,177,0,68,10,179,42,179,7,182,39,182
   718 0000276C B100440AB32AB307B6-
   718 00002775 27B6               
   719 00002777 0853FDA70BB82BB809-          DB 8,83,253,167,11,184,43,184,9,85,2,0,130,167,50,183,1,0,90,167
   719 00002780 55020082A732B70100-
   719 00002789 5AA7               
   720 0000278B 2FB70100FDA7010082-          DB 47,183,1,0,253,167,1,0,130,167,50,183,1,0,11,176,43,176,13,67
   720 00002794 A732B701000BB02BB0-
   720 0000279D 0D43               
   721 0000279F 07B127B10D440AB32A-          DB 7,177,39,177,13,68,10,179,42,179,7,182,39,182,33,83,90,167,47,183
   721 000027A8 B307B627B621535AA7-
   721 000027B1 2FB7               
   722 000027B3 0600404B0BB02BB000-          DB 6,0,64,75,11,176,43,176,0,67,7,177,39,177,0,68,10,178,42,178
   722 000027BC 4307B127B100440AB2-
   722 000027C5 2AB2               
   723 000027C7 03450AB32AB307B627-          DB 3,69,10,179,42,179,7,182,39,182,8,83,251,168,14,184,46,184,4,85
   723 000027D0 B60853FBA80EB82EB8-
   723 000027D9 0455               
   724 000027DB 0100FDA7010082A732-          DB 1,0,253,167,1,0,130,167,50,183,1,0,90,167,47,183,1,0,253,167
   724 000027E4 B701005AA72FB70100-
   724 000027ED FDA7               
   725 000027EF 010082A732B7010048-          DB 1,0,130,167,50,183,1,0,72,75,15,176,47,176,13,67,11,177,43,177
   725 000027F8 4B0FB02FB00D430BB1-
   725 00002801 2BB1               
   726 00002803 0D440AB32AB34C4B07-          DB 13,68,10,179,42,179,76,75,7,182,39,182,33,83,90,167,47,183,6,0
   726 0000280C B627B621535AA72FB7-
   726 00002815 0600               
   727 00002817 0BB02BB0004307B127-          DB 11,176,43,176,0,67,7,177,39,177,0,68,10,179,42,179,7,182,39,182
   727 00002820 B100440AB32AB307B6-
   727 00002829 27B6               
   728 0000282B 08530AB82AB8095501-          DB 8,83,10,184,42,184,9,85,1,0,253,167,1,0,130,167,50,183,1,0
   728 00002834 00FDA7010082A732B7-
   728 0000283D 0100               
   729 0000283F 5AA72FB70100FDA701-          DB 90,167,47,183,1,0,253,167,1,0,130,167,50,183,1,0,11,176,43,176
   729 00002848 0082A732B701000BB0-
   729 00002851 2BB0               
   730 00002853 0D4307B127B10D440A-          DB 13,67,7,177,39,177,13,68,10,179,42,179,7,182,39,182,43,83,90,167
   730 0000285C B32AB307B627B62B53-
   730 00002865 5AA7               
   731 00002867 2FB70600404B0BB02B-          DB 47,183,6,0,64,75,11,176,43,176,0,67,11,177,43,177,0,68,10,178
   731 00002870 B000430BB12BB10044-
   731 00002879 0AB2               
   732 0000287B 2AB200450AB32AB3FB-          DB 42,178,0,69,10,179,42,179,251,166,6,182,38,182,4,83,251,167,14,183
   732 00002884 A606B626B60453FBA7-
   732 0000288D 0EB7               
   733 0000288F 2EB70AB82AB8045501-          DB 46,183,10,184,42,184,4,85,1,0,141,167,47,183,1,0,61,167,50,183
   733 00002898 008DA72FB701003DA7-
   733 000028A1 32B7               
   734 000028A3 0100FBA72EB701008D-          DB 1,0,251,167,46,183,1,0,141,167,47,183,1,0,61,167,50,183,1,0
   734 000028AC A72FB701003DA732B7-
   734 000028B5 0100               
   735 000028B7 484B07B027B00D4307-          DB 72,75,7,176,39,176,13,67,7,177,39,177,13,68,10,179,42,179,76,75
   735 000028C0 B127B10D440AB32AB3-
   735 000028C9 4C4B               
   736 000028CB 06B626B62153FBA72E-          DB 6,182,38,182,33,83,251,167,46,183,6,0,7,176,39,176,0,67,7,177
   736 000028D4 B7060007B027B00043-
   736 000028DD 07B1               
   737 000028DF 27B100440AB32AB306-          DB 39,177,0,68,10,179,42,179,6,182,38,182,8,83,6,184,38,184,9,85
   737 000028E8 B626B6085306B826B8-
   737 000028F1 0955               
   738 000028F3 01008DA72FB701003D-          DB 1,0,141,167,47,183,1,0,61,167,50,183,1,0,251,167,46,183,1,0
   738 000028FC A732B70100FBA72EB7-
   738 00002905 0100               
   739 00002907 8DA72FB701003DA732-          DB 141,167,47,183,1,0,61,167,50,183,1,0,11,176,43,176,13,67,11,177
   739 00002910 B701000BB02BB00D43-
   739 00002919 0BB1               
   740 0000291B 2BB10D440AB32AB306-          DB 43,177,13,68,10,179,42,179,6,182,38,182,33,83,251,167,46,183,6,0
   740 00002924 B626B62153FBA72EB7-
   740 0000292D 0600               
   741 0000292F 404B07B027B0004307-          DB 64,75,7,176,39,176,0,67,7,177,39,177,0,68,10,178,42,178,3,69
   741 00002938 B127B100440AB22AB2-
   741 00002941 0345               
   742 00002943 0AB32AB306B626B608-          DB 10,179,42,179,6,182,38,182,8,83,14,184,46,184,4,85,1,0,141,167
   742 0000294C 530EB82EB804550100-
   742 00002955 8DA7               
   743 00002957 2FB701003DA732B701-          DB 47,183,1,0,61,167,50,183,1,0,251,167,46,183,1,0,141,167,47,183
   743 00002960 00FBA72EB701008DA7-
   743 00002969 2FB7               
   744 0000296B 01003DA732B7010048-          DB 1,0,61,167,50,183,1,0,72,75,7,176,39,176,13,67,7,177,39,177
   744 00002974 4B07B027B00D4307B1-
   744 0000297D 27B1               
   745 0000297F 0D440AB32AB34C4B06-          DB 13,68,10,179,42,179,76,75,6,182,38,182,33,83,251,167,46,183,6,0
   745 00002988 B626B62153FBA72EB7-
   745 00002991 0600               
   746 00002993 0BB02BB000430BB12B-          DB 11,176,43,176,0,67,11,177,43,177,0,68,10,179,42,179,6,182,38,182
   746 0000299C B100440AB32AB306B6-
   746 000029A5 26B6               
   747 000029A7 08530AB82AB8095501-          DB 8,83,10,184,42,184,9,85,1,0,141,167,47,183,1,0,61,167,50,183
   747 000029B0 008DA72FB701003DA7-
   747 000029B9 32B7               
   748 000029BB 0100FBA72EB701008D-          DB 1,0,251,167,46,183,1,0,141,167,47,183,1,0,61,167,50,183,1,0
   748 000029C4 A72FB701003DA732B7-
   748 000029CD 0100               
   749 000029CF 07B027B00D4307B127-          DB 7,176,39,176,13,67,7,177,39,177,13,68,10,179,42,179,6,182,38,182
   749 000029D8 B10D440AB32AB306B6-
   749 000029E1 26B6               
   750 000029E3 2153FBA72EB7060040-          DB 33,83,251,167,46,183,6,0,64,75,141,160,7,176,39,176,0,67,141,161
   750 000029EC 4B8DA007B027B00043-
   750 000029F5 8DA1               
   751 000029F7 07B127B100440AB22A-          DB 7,177,39,177,0,68,10,178,42,178,0,69,10,179,42,179,141,166,7,182
   751 00002A00 B200450AB32AB38DA6-
   751 00002A09 07B6               
   752 00002A0B 27B60453FCA812B832-          DB 39,182,4,83,252,168,18,184,50,184,4,85,1,0,141,167,47,183,1,0
   752 00002A14 B8045501008DA72FB7-
   752 00002A1D 0100               
   753 00002A1F 3DA732B70100FBA72E-          DB 61,167,50,183,1,0,251,167,46,183,1,0,141,167,47,183,1,0,61,167
   753 00002A28 B701008DA72FB70100-
   753 00002A31 3DA7               
   754 00002A33 32B70100484B5AA00B-          DB 50,183,1,0,72,75,90,160,11,176,43,176,13,67,90,161,11,177,43,177
   754 00002A3C B02BB00D435AA10BB1-
   754 00002A45 2BB1               
   755 00002A47 0D440AB32AB34C4BFB-          DB 13,68,10,179,42,179,76,75,251,166,6,182,38,182,33,83,251,167,46,183
   755 00002A50 A606B626B62153FBA7-
   755 00002A59 2EB7               
   756 00002A5B 06008DA007B027B000-          DB 6,0,141,160,7,176,39,176,0,67,141,161,7,177,39,177,0,68,10,179
   756 00002A64 438DA107B127B10044-
   756 00002A6D 0AB3               
   757 00002A6F 2AB306B626B60853FB-          DB 42,179,6,182,38,182,8,83,251,168,10,184,42,184,9,85,1,0,141,167
   757 00002A78 A80AB82AB809550100-
   757 00002A81 8DA7               
   758 00002A83 2FB701003DA732B701-          DB 47,183,1,0,61,167,50,183,1,0,251,167,46,183,1,0,141,167,47,183
   758 00002A8C 00FBA72EB701008DA7-
   758 00002A95 2FB7               
   759 00002A97 01003DA732B7010007-          DB 1,0,61,167,50,183,1,0,7,176,39,176,13,67,7,177,39,177,13,68
   759 00002AA0 B027B00D4307B127B1-
   759 00002AA9 0D44               
   760 00002AAB 0AB32AB306B626B621-          DB 10,179,42,179,6,182,38,182,33,83,251,167,46,183,6,0,64,75,11,176
   760 00002AB4 53FBA72EB70600404B-
   760 00002ABD 0BB0               
   761 00002ABF 2BB000430BB12BB100-          DB 43,176,0,67,11,177,43,177,0,68,10,178,42,178,3,69,10,179,42,179
   761 00002AC8 440AB22AB203450AB3-
   761 00002AD1 2AB3               
   762 00002AD3 0FB42FB4174C0BB52B-          DB 15,180,47,180,23,76,11,181,43,181,23,77,6,182,38,182,8,83,14,183
   762 00002ADC B5174D06B626B60853-
   762 00002AE5 0EB7               
   763 00002AE7 2EB73CA80EB82EB804-          DB 46,183,60,168,14,184,46,184,4,85,1,0,141,167,47,183,1,0,94,167
   763 00002AF0 5501008DA72FB70100-
   763 00002AF9 5EA7               
   764 00002AFB 32B70100FBA72EB701-          DB 50,183,1,0,251,167,46,183,1,0,141,167,47,183,1,0,94,167,50,183
   764 00002B04 008DA72FB701005EA7-
   764 00002B0D 32B7               
   765 00002B0F 0100484B07B027B00D-          DB 1,0,72,75,7,176,39,176,13,67,7,177,39,177,13,68,10,179,42,179
   765 00002B18 4307B127B10D440AB3-
   765 00002B21 2AB3               
   766 00002B23 4C4B0FB42FB4124C0B-          DB 76,75,15,180,47,180,18,76,11,181,43,181,18,77,6,182,38,182,33,83
   766 00002B2C B52BB5124D06B626B6-
   766 00002B35 2153               
   767 00002B37 FBA72EB7060007B027-          DB 251,167,46,183,6,0,7,176,39,176,0,67,7,177,39,177,0,68,10,179
   767 00002B40 B0004307B127B10044-
   767 00002B49 0AB3               
   768 00002B4B 2AB30FB42FB40D4C0B-          DB 42,179,15,180,47,180,13,76,11,181,43,181,13,77,6,182,38,182,8,83
   768 00002B54 B52BB50D4D06B626B6-
   768 00002B5D 0853               
   769 00002B5F 81A80EB82EB8095501-          DB 129,168,14,184,46,184,9,85,1,0,141,167,47,183,1,0,94,167,50,183
   769 00002B68 008DA72FB701005EA7-
   769 00002B71 32B7               
   770 00002B73 0100FBA72EB701008D-          DB 1,0,251,167,46,183,1,0,141,167,47,183,1,0,94,167,50,183,1,0
   770 00002B7C A72FB701005EA732B7-
   770 00002B85 0100               
   771 00002B87 0BB02BB00D430BB12B-          DB 11,176,43,176,13,67,11,177,43,177,13,68,10,179,42,179,15,180,47,180
   771 00002B90 B10D440AB32AB30FB4-
   771 00002B99 2FB4               
   772 00002B9B 0B4C0BB52BB50B4D06-          DB 11,76,11,181,43,181,11,77,6,182,38,182,43,83,251,167,46,183,6,0
   772 00002BA4 B626B62B53FBA72EB7-
   772 00002BAD 0600               
   773 00002BAF 404BFDA007B027B000-          DB 64,75,253,160,7,176,39,176,0,67,253,161,7,177,39,177,0,68,10,178
   773 00002BB8 43FDA107B127B10044-
   773 00002BC1 0AB2               
   774 00002BC3 2AB200450AB32AB3FD-          DB 42,178,0,69,10,179,42,179,253,164,15,180,47,180,0,76,253,165,11,181
   774 00002BCC A40FB42FB4004CFDA5-
   774 00002BD5 0BB5               
   775 00002BD7 2BB5084D1CA60AB62A-          DB 43,181,8,77,28,166,10,182,42,182,4,83,253,167,15,183,47,183,253,168
   775 00002BE0 B60453FDA70FB72FB7-
   775 00002BE9 FDA8               
   776 00002BEB 0FB82FB8045501005E-          DB 15,184,47,184,4,85,1,0,94,167,50,183,1,0,252,167,1,0,253,167
   776 00002BF4 A732B70100FCA70100-
   776 00002BFD FDA7               
   777 00002BFF 2FB701005EA732B701-          DB 47,183,1,0,94,167,50,183,1,0,252,167,1,0,72,75,28,160,10,176
   777 00002C08 00FCA70100484B1CA0-
   777 00002C11 0AB0               
   778 00002C13 2AB00D431CA10AB12A-          DB 42,176,13,67,28,161,10,177,42,177,13,68,10,179,42,179,76,75,253,166
   778 00002C1C B10D440AB32AB34C4B-
   778 00002C25 FDA6               
   779 00002C27 07B627B62153FDA72F-          DB 7,182,39,182,33,83,253,167,47,183,6,0,253,160,7,176,39,176,0,67
   779 00002C30 B70600FDA007B027B0-
   779 00002C39 0043               
   780 00002C3B FDA107B127B100440A-          DB 253,161,7,177,39,177,0,68,10,179,42,179,7,182,39,182,8,83,15,184
   780 00002C44 B32AB307B627B60853-
   780 00002C4D 0FB8               
   781 00002C4F 2FB8095501005EA732-          DB 47,184,9,85,1,0,94,167,50,183,1,0,252,167,1,0,253,167,47,183
   781 00002C58 B70100FCA70100FDA7-
   781 00002C61 2FB7               
   782 00002C63 01005EA732B70100FC-          DB 1,0,94,167,50,183,1,0,252,167,1,0,7,176,39,176,13,67,7,177
   782 00002C6C A7010007B027B00D43-
   782 00002C75 07B1               
   783 00002C77 27B10D440AB32AB307-          DB 39,177,13,68,10,179,42,179,7,182,39,182,33,83,253,167,47,183,6,0
   783 00002C80 B627B62153FDA72FB7-
   783 00002C89 0600               
   784 00002C8B 404B412AC22D064A00-          DB 64,75,65,42,194,45,6,74,0,77,35,106,242,109,240,138,240,141,1,234
   784 00002C94 4D236AF26DF08AF08D-
   784 00002C9D 01EA               
   785 00002C9F 0BB02BB000430BB12B-          DB 11,176,43,176,0,67,11,177,43,177,0,68,10,178,42,178,3,69,10,179
   785 00002CA8 B100440AB22AB20345-
   785 00002CB1 0AB3               
   786 00002CB3 2AB3FCA512B532B504-          DB 42,179,252,165,18,181,50,181,4,77,7,182,39,182,8,83,28,168,18,184
   786 00002CBC 4D07B627B608531CA8-
   786 00002CC5 12B8               
   787 00002CC7 32B8045501005EA732-          DB 50,184,4,85,1,0,94,167,50,183,1,0,252,167,1,0,253,167,47,183
   787 00002CD0 B70100FCA70100FDA7-
   787 00002CD9 2FB7               
   788 00002CDB 01005EA732B70100FC-          DB 1,0,94,167,50,183,1,0,252,167,1,0,72,75,7,176,39,176,13,67
   788 00002CE4 A70100484B07B027B0-
   788 00002CED 0D43               
   789 00002CEF 07B127B10D440AB32A-          DB 7,177,39,177,13,68,10,179,42,179,76,75,142,165,19,181,51,181,7,182
   789 00002CF8 B34C4B8EA513B533B5-
   789 00002D01 07B6               
   790 00002D03 27B62153FDA72FB706-          DB 39,182,33,83,253,167,47,183,6,0,7,176,39,176,0,67,7,177,39,177
   790 00002D0C 0007B027B0004307B1-
   790 00002D15 27B1               
   791 00002D17 00440AB32AB3FDA513-          DB 0,68,10,179,42,179,253,165,19,181,51,181,7,182,39,182,8,83,253,168
   791 00002D20 B533B507B627B60853-
   791 00002D29 FDA8               
   792 00002D2B 0FB82FB8095501005E-          DB 15,184,47,184,9,85,1,0,94,167,50,183,1,0,252,167,1,0,253,167
   792 00002D34 A732B70100FCA70100-
   792 00002D3D FDA7               
   793 00002D3F 2FB701005EA732B701-          DB 47,183,1,0,94,167,50,183,1,0,252,167,1,0,11,176,43,176,13,67
   793 00002D48 00FCA701000BB02BB0-
   793 00002D51 0D43               
   794 00002D53 0BB12BB10D440AB32A-          DB 11,177,43,177,13,68,10,179,42,179,19,181,51,181,63,77,7,182,39,182
   794 00002D5C B313B533B53F4D07B6-
   794 00002D65 27B6               
   795 00002D67 2153FDA72FB7060040-          DB 33,83,253,167,47,183,6,0,64,75,11,176,43,176,0,67,7,177,39,177
   795 00002D70 4B0BB02BB0004307B1-
   795 00002D79 27B1               
   796 00002D7B 00440AB22AB200450A-          DB 0,68,10,178,42,178,0,69,10,179,42,179,252,165,18,181,50,181,8,77
   796 00002D84 B32AB3FCA512B532B5-
   796 00002D8D 084D               
   797 00002D8F 07B627B60853FBA80E-          DB 7,182,39,182,8,83,251,168,14,184,46,184,4,85,1,0,94,167,50,183
   797 00002D98 B82EB8045501005EA7-
   797 00002DA1 32B7               
   798 00002DA3 0100FCA70100FDA72F-          DB 1,0,252,167,1,0,253,167,47,183,1,0,94,167,50,183,1,0,252,167
   798 00002DAC B701005EA732B70100-
   798 00002DB5 FCA7               
   799 00002DB7 0100484B0BB02BB00D-          DB 1,0,72,75,11,176,43,176,13,67,7,177,39,177,13,68,10,179,42,179
   799 00002DC0 4307B127B10D440AB3-
   799 00002DC9 2AB3               
   800 00002DCB 4C4B8EA513B533B50A-          DB 76,75,142,165,19,181,51,181,10,77,7,182,39,182,33,83,253,167,47,183
   800 00002DD4 4D07B627B62153FDA7-
   800 00002DDD 2FB7               
   801 00002DDF 06000FB02FB000430B-          DB 6,0,15,176,47,176,0,67,11,177,43,177,0,68,10,179,42,179,253,165
   801 00002DE8 B12BB100440AB32AB3-
   801 00002DF1 FDA5               
   802 00002DF3 13B533B50C4D07B627-          DB 19,181,51,181,12,77,7,182,39,182,8,83,14,184,46,184,9,85,1,0
   802 00002DFC B608530EB82EB80955-
   802 00002E05 0100               
   803 00002E07 5EA732B70100FCA701-          DB 94,167,50,183,1,0,252,167,1,0,253,167,47,183,1,0,94,167,50,183
   803 00002E10 00FDA72FB701005EA7-
   803 00002E19 32B7               
   804 00002E1B 0100FCA701000BB02B-          DB 1,0,252,167,1,0,11,176,43,176,13,67,7,177,39,177,13,68,10,179
   804 00002E24 B00D4307B127B10D44-
   804 00002E2D 0AB3               
   805 00002E2F 2AB313B533B53F4D07-          DB 42,179,19,181,51,181,63,77,7,182,39,182,33,83,253,167,47,183,6,0
   805 00002E38 B627B62153FDA72FB7-
   805 00002E41 0600               
   806 00002E43 404B0BB02BB0004307-          DB 64,75,11,176,43,176,0,67,7,177,39,177,0,68,10,178,42,178,3,69
   806 00002E4C B127B100440AB22AB2-
   806 00002E55 0345               
   807 00002E57 0AB32AB307B627B608-          DB 10,179,42,179,7,182,39,182,8,83,40,168,15,184,47,184,4,85,1,0
   807 00002E60 5328A80FB82FB80455-
   807 00002E69 0100               
   808 00002E6B 5EA732B70100FCA701-          DB 94,167,50,183,1,0,252,167,1,0,253,167,47,183,1,0,94,167,50,183
   808 00002E74 00FDA72FB701005EA7-
   808 00002E7D 32B7               
   809 00002E7F 0100FCA70100484B0F-          DB 1,0,252,167,1,0,72,75,15,176,47,176,13,67,11,177,43,177,13,68
   809 00002E88 B02FB00D430BB12BB1-
   809 00002E91 0D44               
   810 00002E93 0AB32AB34C4B07B627-          DB 10,179,42,179,76,75,7,182,39,182,33,83,253,167,47,183,6,0,11,176
   810 00002E9C B62153FDA72FB70600-
   810 00002EA5 0BB0               
   811 00002EA7 2BB0004307B127B100-          DB 43,176,0,67,7,177,39,177,0,68,10,179,42,179,7,182,39,182,8,83
   811 00002EB0 440AB32AB307B627B6-
   811 00002EB9 0853               
   812 00002EBB FBA80EB82EB8095501-          DB 251,168,14,184,46,184,9,85,1,0,94,167,50,183,1,0,252,167,1,0
   812 00002EC4 005EA732B70100FCA7-
   812 00002ECD 0100               
   813 00002ECF FDA72FB701005EA732-          DB 253,167,47,183,1,0,94,167,50,183,1,0,252,167,1,0,11,176,43,176
   813 00002ED8 B70100FCA701000BB0-
   813 00002EE1 2BB0               
   814 00002EE3 0D4307B127B10D440A-          DB 13,67,7,177,39,177,13,68,10,179,42,179,7,182,39,182,43,83,253,167
   814 00002EEC B32AB307B627B62B53-
   814 00002EF5 FDA7               
   815 00002EF7 2FB70600404B0BB02B-          DB 47,183,6,0,64,75,11,176,43,176,0,67,11,177,43,177,0,68,10,178
   815 00002F00 B000430BB12BB10044-
   815 00002F09 0AB2               
   816 00002F0B 2AB200450AB32AB31C-          DB 42,178,0,69,10,179,42,179,28,166,10,182,42,182,4,83,15,183,47,183
   816 00002F14 A60AB62AB604530FB7-
   816 00002F1D 2FB7               
   817 00002F1F FDA80FB82FB8045501-          DB 253,168,15,184,47,184,4,85,1,0,94,167,50,183,1,0,208,167,1,0
   817 00002F28 005EA732B70100D0A7-
   817 00002F31 0100               
   818 00002F33 FDA72FB701005EA732-          DB 253,167,47,183,1,0,94,167,50,183,1,0,208,167,1,0,72,75,7,176
   818 00002F3C B70100D0A70100484B-
   818 00002F45 07B0               
   819 00002F47 27B00D4307B127B10D-          DB 39,176,13,67,7,177,39,177,13,68,10,179,42,179,76,75,253,166,7,182
   819 00002F50 440AB32AB34C4BFDA6-
   819 00002F59 07B6               
   820 00002F5B 27B62153FDA72FB706-          DB 39,182,33,83,253,167,47,183,6,0,7,176,39,176,0,67,7,177,39,177
   820 00002F64 0007B027B0004307B1-
   820 00002F6D 27B1               
   821 00002F6F 00440AB32AB307B627-          DB 0,68,10,179,42,179,7,182,39,182,8,83,15,184,47,184,9,85,1,0
   821 00002F78 B608530FB82FB80955-
   821 00002F81 0100               
   822 00002F83 5EA732B70100D0A701-          DB 94,167,50,183,1,0,208,167,1,0,253,167,47,183,1,0,94,167,50,183
   822 00002F8C 00FDA72FB701005EA7-
   822 00002F95 32B7               
   823 00002F97 0100D0A701000BB02B-          DB 1,0,208,167,1,0,11,176,43,176,13,67,11,177,43,177,13,68,10,179
   823 00002FA0 B00D430BB12BB10D44-
   823 00002FA9 0AB3               
   824 00002FAB 2AB307B627B62153FD-          DB 42,179,7,182,39,182,33,83,253,167,47,183,6,0,64,75,7,176,39,176
   824 00002FB4 A72FB70600404B07B0-
   824 00002FBD 27B0               
   825 00002FBF 004307B127B100440A-          DB 0,67,7,177,39,177,0,68,10,178,42,178,3,69,10,179,42,179,252,165
   825 00002FC8 B22AB203450AB32AB3-
   825 00002FD1 FCA5               
   826 00002FD3 12B532B5044D07B627-          DB 18,181,50,181,4,77,7,182,39,182,8,83,28,168,18,184,50,184,4,85
   826 00002FDC B608531CA812B832B8-
   826 00002FE5 0455               
   827 00002FE7 01005EA732B70100D0-          DB 1,0,94,167,50,183,1,0,208,167,1,0,253,167,47,183,1,0,94,167
   827 00002FF0 A70100FDA72FB70100-
   827 00002FF9 5EA7               
   828 00002FFB 32B70100D0A7010048-          DB 50,183,1,0,208,167,1,0,72,75,7,176,39,176,13,67,7,177,39,177
   828 00003004 4B07B027B00D4307B1-
   828 0000300D 27B1               
   829 0000300F 0D440AB32AB34C4B8E-          DB 13,68,10,179,42,179,76,75,142,165,19,181,51,181,7,182,39,182,33,83
   829 00003018 A513B533B507B627B6-
   829 00003021 2153               
   830 00003023 FDA72FB706000BB02B-          DB 253,167,47,183,6,0,11,176,43,176,0,67,11,177,43,177,0,68,10,179
   830 0000302C B000430BB12BB10044-
   830 00003035 0AB3               
   831 00003037 2AB3FDA513B533B507-          DB 42,179,253,165,19,181,51,181,7,182,39,182,8,83,253,168,15,184,47,184
   831 00003040 B627B60853FDA80FB8-
   831 00003049 2FB8               
   832 0000304B 095501005EA732B701-          DB 9,85,1,0,94,167,50,183,1,0,208,167,1,0,253,167,47,183,1,0
   832 00003054 00D0A70100FDA72FB7-
   832 0000305D 0100               
   833 0000305F 5EA732B70100D0A701-          DB 94,167,50,183,1,0,208,167,1,0,7,176,39,176,13,67,7,177,39,177
   833 00003068 0007B027B00D4307B1-
   833 00003071 27B1               
   834 00003073 0D440AB32AB313B533-          DB 13,68,10,179,42,179,19,181,51,181,63,77,7,182,39,182,33,83,253,167
   834 0000307C B53F4D07B627B62153-
   834 00003085 FDA7               
   835 00003087 2FB70600404B1CA00A-          DB 47,183,6,0,64,75,28,160,10,176,42,176,0,67,28,161,10,177,42,177
   835 00003090 B02AB000431CA10AB1-
   835 00003099 2AB1               
   836 0000309B 00440AB22AB200450A-          DB 0,68,10,178,42,178,0,69,10,179,42,179,252,165,18,181,50,181,8,77
   836 000030A4 B32AB3FCA512B532B5-
   836 000030AD 084D               
   837 000030AF 07B627B60853FCA812-          DB 7,182,39,182,8,83,252,168,18,184,50,184,4,85,1,0,94,167,50,183
   837 000030B8 B832B8045501005EA7-
   837 000030C1 32B7               
   838 000030C3 0100D0A70100FDA72F-          DB 1,0,208,167,1,0,253,167,47,183,1,0,94,167,50,183,1,0,208,167
   838 000030CC B701005EA732B70100-
   838 000030D5 D0A7               
   839 000030D7 0100484BFDA00BB02B-          DB 1,0,72,75,253,160,11,176,43,176,13,67,253,161,11,177,43,177,13,68
   839 000030E0 B00D43FDA10BB12BB1-
   839 000030E9 0D44               
   840 000030EB 0AB32AB34C4B8EA513-          DB 10,179,42,179,76,75,142,165,19,181,51,181,10,77,7,182,39,182,33,83
   840 000030F4 B533B50A4D07B627B6-
   840 000030FD 2153               
   841 000030FF FDA72FB706001CA00A-          DB 253,167,47,183,6,0,28,160,10,176,42,176,0,67,28,161,10,177,42,177
   841 00003108 B02AB000431CA10AB1-
   841 00003111 2AB1               
   842 00003113 00440AB32AB3FDA513-          DB 0,68,10,179,42,179,253,165,19,181,51,181,12,77,7,182,39,182,8,83
   842 0000311C B533B50C4D07B627B6-
   842 00003125 0853               
   843 00003127 D0A812B832B8095501-          DB 208,168,18,184,50,184,9,85,1,0,94,167,50,183,1,0,208,167,1,0
   843 00003130 005EA732B70100D0A7-
   843 00003139 0100               
   844 0000313B FDA72FB701005EA732-          DB 253,167,47,183,1,0,94,167,50,183,1,0,208,167,1,0,10,176,42,176
   844 00003144 B70100D0A701000AB0-
   844 0000314D 2AB0               
   845 0000314F 0D430AB12AB10D440A-          DB 13,67,10,177,42,177,13,68,10,179,42,179,19,181,51,181,63,77,7,182
   845 00003158 B32AB313B533B53F4D-
   845 00003161 07B6               
   846 00003163 27B62153FDA72FB706-          DB 39,182,33,83,253,167,47,183,6,0,64,75,14,176,46,176,0,67,14,177
   846 0000316C 00404B0EB02EB00043-
   846 00003175 0EB1               
   847 00003177 2EB100440AB22AB203-          DB 46,177,0,68,10,178,42,178,3,69,10,179,42,179,7,182,39,182,8,83
   847 00003180 450AB32AB307B627B6-
   847 00003189 0853               
   848 0000318B 0FB72FB7FDA80FB82F-          DB 15,183,47,183,253,168,15,184,47,184,4,85,1,0,94,167,50,183,1,0
   848 00003194 B8045501005EA732B7-
   848 0000319D 0100               
   849 0000319F 28A733B70100FDA72F-          DB 40,167,51,183,1,0,253,167,47,183,1,0,94,167,50,183,1,0,40,167
   849 000031A8 B701005EA732B70100-
   849 000031B1 28A7               
   850 000031B3 33B70100484B0AB02A-          DB 51,183,1,0,72,75,10,176,42,176,13,67,10,177,42,177,13,68,10,179
   850 000031BC B00D430AB12AB10D44-
   850 000031C5 0AB3               
   851 000031C7 2AB34C4B07B627B621-          DB 42,179,76,75,7,182,39,182,33,83,253,167,47,183,141,168,15,184,47,184
   851 000031D0 53FDA72FB78DA80FB8-
   851 000031D9 2FB8               
   852 000031DB 0600002A002D084A00-          DB 6,0,0,42,0,45,8,74,0,77,248,106,244,109,38,138,71,141,2,234
   852 000031E4 4DF86AF46D268A478D-
   852 000031ED 02EA               
   853 000031EF 0AB02AB000430AB12A-          DB 10,176,42,176,0,67,10,177,42,177,0,68,10,178,42,178,0,69,10,179
   853 000031F8 B100440AB22AB20045-
   853 00003201 0AB3               
   854 00003203 2AB30FB42FB40BB52B-          DB 42,179,15,180,47,180,11,181,43,181,8,77,7,182,39,182,8,83,168,168
   854 0000320C B5084D07B627B60853-
   854 00003215 A8A8               
   855 00003217 12B832B8095501005E-          DB 18,184,50,184,9,85,1,0,94,167,50,183,1,0,40,167,51,183,1,0
   855 00003220 A732B7010028A733B7-
   855 00003229 0100               
   856 0000322B FDA72FB701005EA732-          DB 253,167,47,183,1,0,94,167,50,183,1,0,40,167,51,183,1,0,14,176
   856 00003234 B7010028A733B70100-
   856 0000323D 0EB0               
   857 0000323F 2EB00D430EB12EB10D-          DB 46,176,13,67,14,177,46,177,13,68,10,179,42,179,7,182,39,182,43,83
   857 00003248 440AB32AB307B627B6-
   857 00003251 2B53               
   858 00003253 FDA72FB7FCA812B832-          DB 253,167,47,183,252,168,18,184,50,184,4,85,6,0,64,75,253,160,7,176
   858 0000325C B804550600404BFDA0-
   858 00003265 07B0               
   859 00003267 27B00043FDA107B127-          DB 39,176,0,67,253,161,7,177,39,177,0,68,10,178,42,178,10,179,42,179
   859 00003270 B100440AB22AB20AB3-
   859 00003279 2AB3               
   860 0000327B 0FB42FB40BB52BB507-          DB 15,180,47,180,11,181,43,181,7,182,39,182,4,83,15,183,47,183,253,168
   860 00003284 B627B604530FB72FB7-
   860 0000328D FDA8               
   861 0000328F 0FB82FB801005EA732-          DB 15,184,47,184,1,0,94,167,50,183,1,0,252,167,1,0,253,167,47,183
   861 00003298 B70100FCA70100FDA7-
   861 000032A1 2FB7               
   862 000032A3 01005EA732B70100FC-          DB 1,0,94,167,50,183,1,0,252,167,1,0,72,75,28,160,10,176,42,176
   862 000032AC A70100484B1CA00AB0-
   862 000032B5 2AB0               
   863 000032B7 0D431CA10AB12AB10D-          DB 13,67,28,161,10,177,42,177,13,68,10,179,42,179,76,75,7,182,39,182
   863 000032C0 440AB32AB34C4B07B6-
   863 000032C9 27B6               
   864 000032CB 2153FDA72FB70600FD-          DB 33,83,253,167,47,183,6,0,253,160,7,176,39,176,0,67,253,161,7,177
   864 000032D4 A007B027B00043FDA1-
   864 000032DD 07B1               
   865 000032DF 27B100440AB32AB307-          DB 39,177,0,68,10,179,42,179,7,182,39,182,8,83,15,184,47,184,9,85
   865 000032E8 B627B608530FB82FB8-
   865 000032F1 0955               
   866 000032F3 01005EA732B70100FC-          DB 1,0,94,167,50,183,1,0,252,167,1,0,253,167,47,183,1,0,94,167
   866 000032FC A70100FDA72FB70100-
   866 00003305 5EA7               
   867 00003307 32B70100FCA7010007-          DB 50,183,1,0,252,167,1,0,7,176,39,176,13,67,7,177,39,177,13,68
   867 00003310 B027B00D4307B127B1-
   867 00003319 0D44               
   868 0000331B 0AB32AB307B627B621-          DB 10,179,42,179,7,182,39,182,33,83,253,167,47,183,6,0,64,75,65,42
   868 00003324 53FDA72FB70600404B-
   868 0000332D 412A               
   869 0000332F C22D064A004D236AF2-          DB 194,45,6,74,0,77,35,106,242,109,240,138,240,141,1,234,11,176,43,176
   869 00003338 6DF08AF08D01EA0BB0-
   869 00003341 2BB0               
   870 00003343 00430BB12BB100440A-          DB 0,67,11,177,43,177,0,68,10,178,42,178,3,69,10,179,42,179,252,165
   870 0000334C B22AB203450AB32AB3-
   870 00003355 FCA5               
   871 00003357 12B532B5044D07B627-          DB 18,181,50,181,4,77,7,182,39,182,8,83,28,168,18,184,50,184,4,85
   871 00003360 B608531CA812B832B8-
   871 00003369 0455               
   872 0000336B 02005EA732B70100FC-          DB 2,0,94,167,50,183,1,0,252,167,1,0,253,167,47,183,1,0,94,167
   872 00003374 A70100FDA72FB70100-
   872 0000337D 5EA7               
   873 0000337F 32B70100FCA7010048-          DB 50,183,1,0,252,167,1,0,72,75,7,176,39,176,13,67,7,177,39,177
   873 00003388 4B07B027B00D4307B1-
   873 00003391 27B1               
   874 00003393 0D440AB32AB34C4B8E-          DB 13,68,10,179,42,179,76,75,142,165,19,181,51,181,7,182,39,182,33,83
   874 0000339C A513B533B507B627B6-
   874 000033A5 2153               
   875 000033A7 FDA72FB7060007B027-          DB 253,167,47,183,6,0,7,176,39,176,0,67,7,177,39,177,0,68,10,179
   875 000033B0 B0004307B127B10044-
   875 000033B9 0AB3               
   876 000033BB 2AB3FDA513B533B507-          DB 42,179,253,165,19,181,51,181,7,182,39,182,8,83,253,168,15,184,47,184
   876 000033C4 B627B60853FDA80FB8-
   876 000033CD 2FB8               
   877 000033CF 095501005EA732B701-          DB 9,85,1,0,94,167,50,183,1,0,252,167,1,0,253,167,47,183,1,0
   877 000033D8 00FCA70100FDA72FB7-
   877 000033E1 0100               
   878 000033E3 5EA732B70100FCA701-          DB 94,167,50,183,1,0,252,167,1,0,11,176,43,176,13,67,11,177,43,177
   878 000033EC 000BB02BB00D430BB1-
   878 000033F5 2BB1               
   879 000033F7 0D440AB32AB313B533-          DB 13,68,10,179,42,179,19,181,51,181,63,77,7,182,39,182,33,83,253,167
   879 00003400 B53F4D07B627B62153-
   879 00003409 FDA7               
   880 0000340B 2FB70600404B0BB02B-          DB 47,183,6,0,64,75,11,176,43,176,0,67,7,177,39,177,0,68,10,178
   880 00003414 B0004307B127B10044-
   880 0000341D 0AB2               
   881 0000341F 2AB200450AB32AB3FC-          DB 42,178,0,69,10,179,42,179,252,165,18,181,50,181,8,77,7,182,39,182
   881 00003428 A512B532B5084D07B6-
   881 00003431 27B6               
   882 00003433 0853FBA80EB82EB804-          DB 8,83,251,168,14,184,46,184,4,85,1,0,94,167,50,183,1,0,252,167
   882 0000343C 5501005EA732B70100-
   882 00003445 FCA7               
   883 00003447 0100FDA72FB701005E-          DB 1,0,253,167,47,183,1,0,94,167,50,183,1,0,252,167,1,0,72,75
   883 00003450 A732B70100FCA70100-
   883 00003459 484B               
   884 0000345B 0BB02BB00D4307B127-          DB 11,176,43,176,13,67,7,177,39,177,13,68,10,179,42,179,76,75,142,165
   884 00003464 B10D440AB32AB34C4B-
   884 0000346D 8EA5               
   885 0000346F 13B533B50A4D07B627-          DB 19,181,51,181,10,77,7,182,39,182,33,83,253,167,47,183,6,0,15,176
   885 00003478 B62153FDA72FB70600-
   885 00003481 0FB0               
   886 00003483 2FB000430BB12BB100-          DB 47,176,0,67,11,177,43,177,0,68,10,179,42,179,253,165,19,181,51,181
   886 0000348C 440AB32AB3FDA513B5-
   886 00003495 33B5               
   887 00003497 0C4D07B627B608530E-          DB 12,77,7,182,39,182,8,83,14,184,46,184,9,85,1,0,94,167,50,183
   887 000034A0 B82EB8095501005EA7-
   887 000034A9 32B7               
   888 000034AB 0100FCA70100FDA72F-          DB 1,0,252,167,1,0,253,167,47,183,1,0,94,167,50,183,1,0,252,167
   888 000034B4 B701005EA732B70100-
   888 000034BD FCA7               
   889 000034BF 01000BB02BB00D4307-          DB 1,0,11,176,43,176,13,67,7,177,39,177,13,68,10,179,42,179,19,181
   889 000034C8 B127B10D440AB32AB3-
   889 000034D1 13B5               
   890 000034D3 33B53F4D07B627B621-          DB 51,181,63,77,7,182,39,182,33,83,253,167,47,183,6,0,64,75,11,176
   890 000034DC 53FDA72FB70600404B-
   890 000034E5 0BB0               
   891 000034E7 2BB0004307B127B100-          DB 43,176,0,67,7,177,39,177,0,68,10,178,42,178,3,69,10,179,42,179
   891 000034F0 440AB22AB203450AB3-
   891 000034F9 2AB3               
   892 000034FB 07B627B6085328A80F-          DB 7,182,39,182,8,83,40,168,15,184,47,184,4,85,1,0,94,167,50,183
   892 00003504 B82FB8045501005EA7-
   892 0000350D 32B7               
   893 0000350F 0100FCA70100FDA72F-          DB 1,0,252,167,1,0,253,167,47,183,1,0,94,167,50,183,1,0,252,167
   893 00003518 B701005EA732B70100-
   893 00003521 FCA7               
   894 00003523 0100484B0FB02FB00D-          DB 1,0,72,75,15,176,47,176,13,67,11,177,43,177,13,68,10,179,42,179
   894 0000352C 430BB12BB10D440AB3-
   894 00003535 2AB3               
   895 00003537 4C4B07B627B62153FD-          DB 76,75,7,182,39,182,33,83,253,167,47,183,6,0,11,176,43,176,0,67
   895 00003540 A72FB706000BB02BB0-
   895 00003549 0043               
   896 0000354B 07B127B100440AB32A-          DB 7,177,39,177,0,68,10,179,42,179,7,182,39,182,8,83,251,168,14,184
   896 00003554 B307B627B60853FBA8-
   896 0000355D 0EB8               
   897 0000355F 2EB8095501005EA732-          DB 46,184,9,85,1,0,94,167,50,183,1,0,252,167,1,0,253,167,47,183
   897 00003568 B70100FCA70100FDA7-
   897 00003571 2FB7               
   898 00003573 01005EA732B70100FC-          DB 1,0,94,167,50,183,1,0,252,167,1,0,11,176,43,176,13,67,7,177
   898 0000357C A701000BB02BB00D43-
   898 00003585 07B1               
   899 00003587 27B10D440AB32AB307-          DB 39,177,13,68,10,179,42,179,7,182,39,182,43,83,253,167,47,183,6,0
   899 00003590 B627B62B53FDA72FB7-
   899 00003599 0600               
   900 0000359B 404B002A002D084A00-          DB 64,75,0,42,0,45,8,74,0,77,248,106,244,109,38,138,71,141,2,234
   900 000035A4 4DF86AF46D268A478D-
   900 000035AD 02EA               
   901 000035AF 8DA00BB02BB000438D-          DB 141,160,11,176,43,176,0,67,141,161,11,177,43,177,0,68,10,178,42,178
   901 000035B8 A10BB12BB100440AB2-
   901 000035C1 2AB2               
   902 000035C3 00450AB32AB38DA40F-          DB 0,69,10,179,42,179,141,164,15,180,47,180,141,165,11,181,43,181,8,77
   902 000035CC B42FB48DA50BB52BB5-
   902 000035D5 084D               
   903 000035D7 8DA60BB62BB604538D-          DB 141,166,11,182,43,182,4,83,141,167,15,183,47,183,253,168,15,184,47,184
   903 000035E0 A70FB72FB7FDA80FB8-
   903 000035E9 2FB8               
   904 000035EB 045501001CA732B701-          DB 4,85,1,0,28,167,50,183,1,0,168,167,1,0,141,167,47,183,1,0
   904 000035F4 00A8A701008DA72FB7-
   904 000035FD 0100               
   905 000035FF 1CA732B70100A8A701-          DB 28,167,50,183,1,0,168,167,1,0,141,167,47,183,6,0,15,184,47,184
   905 00003608 008DA72FB706000FB8-
   905 00003611 2FB8               
   906 00003613 095501001CA732B701-          DB 9,85,1,0,28,167,50,183,1,0,168,167,1,0,141,167,47,183,1,0
   906 0000361C 00A8A701008DA72FB7-
   906 00003625 0100               
   907 00003627 1CA732B70100A8A701-          DB 28,167,50,183,1,0,168,167,1,0,141,167,47,183,6,0,65,42,194,45
   907 00003630 008DA72FB70600412A-
   907 00003639 C22D               
   908 0000363B 064A004D236AF26DF0-          DB 6,74,0,77,35,106,242,109,240,138,240,141,1,234,10,178,42,178,252,165
   908 00003644 8AF08D01EA0AB22AB2-
   908 0000364D FCA5               
   909 0000364F 12B532B5044D1CA812-          DB 18,181,50,181,4,77,28,168,18,184,50,184,4,85,1,0,28,167,50,183
   909 00003658 B832B8045501001CA7-
   909 00003661 32B7               
   910 00003663 010089A6A8A7010088-          DB 1,0,137,166,168,167,1,0,136,166,141,167,47,183,1,0,137,166,28,167
   910 0000366C A68DA72FB7010089A6-
   910 00003675 1CA7               
   911 00003677 32B701008DA6A8A701-          DB 50,183,1,0,141,166,168,167,1,0,142,165,19,181,51,181,141,167,47,183
   911 00003680 008EA513B533B58DA7-
   911 00003689 2FB7               
   912 0000368B 010091A6010093A601-          DB 1,0,145,166,1,0,147,166,1,0,145,166,1,0,141,166,1,0,137,166
   912 00003694 0091A601008DA60100-
   912 0000369D 89A6               
   913 0000369F 0100FDA513B533B5FD-          DB 1,0,253,165,19,181,51,181,253,168,15,184,47,184,9,85,1,0,136,166
   913 000036A8 A80FB82FB809550100-
   913 000036B1 88A6               
   914 000036B3 1CA732B7010089A6A8-          DB 28,167,50,183,1,0,137,166,168,167,1,0,141,166,141,167,47,183,1,0
   914 000036BC A701008DA68DA72FB7-
   914 000036C5 0100               
   915 000036C7 91A61CA732B7010093-          DB 145,166,28,167,50,183,1,0,147,166,168,167,1,0,19,181,51,181,63,77
   915 000036D0 A6A8A7010013B533B5-
   915 000036D9 3F4D               
   916 000036DB 8DA72FB7010091A601-          DB 141,167,47,183,1,0,145,166,1,0,141,166,1,0,137,166,1,0,136,166
   916 000036E4 008DA6010089A60100-
   916 000036ED 88A6               
   917 000036EF 010089A601000AB22A-          DB 1,0,137,166,1,0,10,178,42,178,252,165,18,181,50,181,8,77,251,168
   917 000036F8 B2FCA512B532B5084D-
   917 00003701 FBA8               
   918 00003703 0EB82EB804550100F3-          DB 14,184,46,184,4,85,1,0,243,166,42,182,28,167,50,183,1,0,136,166
   918 0000370C A62AB61CA732B70100-
   918 00003715 88A6               
   919 00003717 A8A7010038A68DA72F-          DB 168,167,1,0,56,166,141,167,47,183,1,0,243,166,39,182,28,167,50,183
   919 00003720 B70100F3A627B61CA7-
   919 00003729 32B7               
   920 0000372B 01008EA6A8A701008E-          DB 1,0,142,166,168,167,1,0,142,165,19,181,51,181,10,77,141,167,47,183
   920 00003734 A513B533B50A4D8DA7-
   920 0000373D 2FB7               
   921 0000373F 01003CA60100F7A626-          DB 1,0,60,166,1,0,247,166,38,182,1,0,189,166,1,0,139,166,1,0
   921 00003748 B60100BDA601008BA6-
   921 00003751 0100               
   922 00003753 60A60100FDA513B533-          DB 96,166,1,0,253,165,19,181,51,181,12,77,168,168,14,184,46,184,9,85
   922 0000375C B50C4DA8A80EB82EB8-
   922 00003765 0955               
   923 00003767 01003AA61CA732B701-          DB 1,0,58,166,28,167,50,183,1,0,25,166,168,167,1,0,246,166,35,182
   923 00003770 0019A6A8A70100F6A6-
   923 00003779 23B6               
   924 0000377B 8DA72FB70100C1A61C-          DB 141,167,47,183,1,0,193,166,28,167,50,183,1,0,145,166,168,167,1,0
   924 00003784 A732B7010091A6A8A7-
   924 0000378D 0100               
   925 0000378F 13B533B53F4D8DA72F-          DB 19,181,51,181,63,77,141,167,47,183,1,0,101,166,1,0,62,166,1,0
   925 00003798 B7010065A601003EA6-
   925 000037A1 0100               
   926 000037A3 1AA60100F9A622B601-          DB 26,166,1,0,249,166,34,182,1,0,218,166,1,0,10,178,42,178,15,180
   926 000037AC 00DAA601000AB22AB2-
   926 000037B5 0FB4               
   927 000037B7 2FB4174C0FB72FB71C-          DB 47,180,23,76,15,183,47,183,28,168,18,184,50,184,4,85,1,0,191,166
   927 000037C0 A812B832B804550100-
   927 000037C9 BFA6               
   928 000037CB 1CA732B70100A4A6D0-          DB 28,167,50,183,1,0,164,166,208,167,1,0,140,166,141,167,47,183,1,0
   928 000037D4 A701008CA68DA72FB7-
   928 000037DD 0100               
   929 000037DF 76A61CA732B7010061-          DB 118,166,28,167,50,183,1,0,97,166,208,167,1,0,10,178,42,178,5,69
   929 000037E8 A6D0A701000AB22AB2-
   929 000037F1 0545               
   930 000037F3 0FB42FB4124C8DA72F-          DB 15,180,47,180,18,76,141,167,47,183,1,0,77,166,1,0,59,166,1,0
   930 000037FC B701004DA601003BA6-
   930 00003805 0100               
   931 00003807 29A601001AA601000A-          DB 41,166,1,0,26,166,1,0,10,166,1,0,10,178,42,178,0,69,15,180
   931 00003810 A601000AB22AB20045-
   931 00003819 0FB4               
   932 0000381B 2FB40D4C8DA80FB82F-          DB 47,180,13,76,141,168,15,184,47,184,9,85,1,0,251,166,33,182,28,167
   932 00003824 B809550100FBA621B6-
   932 0000382D 1CA7               
   933 0000382F 32B70100EEA6D0A701-          DB 50,183,1,0,238,166,208,167,1,0,225,166,141,167,47,183,1,0,212,166
   933 00003838 00E1A68DA72FB70100-
   933 00003841 D4A6               
   934 00003843 1CA732B70100C9A6D0-          DB 28,167,50,183,1,0,201,166,208,167,1,0,10,178,42,178,5,69,15,180
   934 0000384C A701000AB22AB20545-
   934 00003855 0FB4               
   935 00003857 2FB40B4C8DA72FB701-          DB 47,180,11,76,141,167,47,183,1,0,190,166,1,0,179,166,1,0,169,166
   935 00003860 00BEA60100B3A60100-
   935 00003869 A9A6               
   936 0000386B 01009FA6010096A601-          DB 1,0,159,166,1,0,150,166,1,0,0,42,0,45,8,74,0,77,248,106
   936 00003874 00002A002D084A004D-
   936 0000387D F86A               
   937 0000387F F46D268A478D02EAFD-          DB 244,109,38,138,71,141,2,234,253,160,7,176,39,176,253,161,7,177,39,177
   937 00003888 A007B027B0FDA107B1-
   937 00003891 27B1               
   938 00003893 0AB22AB200450AB32A-          DB 10,178,42,178,0,69,10,179,42,179,253,164,15,180,47,180,0,76,11,181
   938 0000389C B3FDA40FB42FB4004C-
   938 000038A5 0BB5               
   939 000038A7 2BB5084D1CA60AB62A-          DB 43,181,8,77,28,166,10,182,42,182,253,167,15,183,47,183,253,168,15,184
   939 000038B0 B6FDA70FB72FB7FDA8-
   939 000038B9 0FB8               
   940 000038BB 2FB8045501005EA732-          DB 47,184,4,85,1,0,94,167,50,183,1,0,252,167,1,0,253,167,47,183
   940 000038C4 B70100FCA70100FDA7-
   940 000038CD 2FB7               
   941 000038CF 01005EA732B70100FC-          DB 1,0,94,167,50,183,1,0,252,167,1,0,72,75,28,160,10,176,42,176
   941 000038D8 A70100484B1CA00AB0-
   941 000038E1 2AB0               
   942 000038E3 0D431CA10AB12AB10D-          DB 13,67,28,161,10,177,42,177,13,68,10,179,42,179,76,75,253,166,7,182
   942 000038EC 440AB32AB34C4BFDA6-
   942 000038F5 07B6               
   943 000038F7 27B62153FDA72FB706-          DB 39,182,33,83,253,167,47,183,6,0,253,160,7,176,39,176,0,67,253,161
   943 00003900 00FDA007B027B00043-
   943 00003909 FDA1               
   944 0000390B 07B127B100440AB32A-          DB 7,177,39,177,0,68,10,179,42,179,7,182,39,182,8,83,15,184,47,184
   944 00003914 B307B627B608530FB8-
   944 0000391D 2FB8               
   945 0000391F 095501005EA732B701-          DB 9,85,1,0,94,167,50,183,1,0,252,167,1,0,253,167,47,183,1,0
   945 00003928 00FCA70100FDA72FB7-
   945 00003931 0100               
   946 00003933 5EA732B70100FCA701-          DB 94,167,50,183,1,0,252,167,1,0,7,176,39,176,13,67,7,177,39,177
   946 0000393C 0007B027B00D4307B1-
   946 00003945 27B1               
   947 00003947 0D440AB32AB307B627-          DB 13,68,10,179,42,179,7,182,39,182,33,83,253,167,47,183,6,0,64,75
   947 00003950 B62153FDA72FB70600-
   947 00003959 404B               
   948 0000395B 412AC22D064A004D23-          DB 65,42,194,45,6,74,0,77,35,106,242,109,240,138,240,141,1,234,11,176
   948 00003964 6AF26DF08AF08D01EA-
   948 0000396D 0BB0               
   949 0000396F 2BB000430BB12BB100-          DB 43,176,0,67,11,177,43,177,0,68,10,178,42,178,3,69,10,179,42,179
   949 00003978 440AB22AB203450AB3-
   949 00003981 2AB3               
   950 00003983 FCA512B532B5044D07-          DB 252,165,18,181,50,181,4,77,7,182,39,182,8,83,28,168,18,184,50,184
   950 0000398C B627B608531CA812B8-
   950 00003995 32B8               
   951 00003997 045501005EA732B701-          DB 4,85,1,0,94,167,50,183,1,0,252,167,1,0,253,167,47,183,1,0
   951 000039A0 00FCA70100FDA72FB7-
   951 000039A9 0100               
   952 000039AB 5EA732B70100FCA701-          DB 94,167,50,183,1,0,252,167,1,0,72,75,7,176,39,176,13,67,7,177
   952 000039B4 00484B07B027B00D43-
   952 000039BD 07B1               
   953 000039BF 27B10D440AB32AB34C-          DB 39,177,13,68,10,179,42,179,76,75,142,165,19,181,51,181,7,182,39,182
   953 000039C8 4B8EA513B533B507B6-
   953 000039D1 27B6               
   954 000039D3 2153FDA72FB7060007-          DB 33,83,253,167,47,183,6,0,7,176,39,176,0,67,7,177,39,177,0,68
   954 000039DC B027B0004307B127B1-
   954 000039E5 0044               
   955 000039E7 0AB32AB3FDA513B533-          DB 10,179,42,179,253,165,19,181,51,181,7,182,39,182,8,83,253,168,15,184
   955 000039F0 B507B627B60853FDA8-
   955 000039F9 0FB8               
   956 000039FB 2FB8095501005EA732-          DB 47,184,9,85,1,0,94,167,50,183,1,0,252,167,1,0,253,167,47,183
   956 00003A04 B70100FCA70100FDA7-
   956 00003A0D 2FB7               
   957 00003A0F 01005EA732B70100FC-          DB 1,0,94,167,50,183,1,0,252,167,1,0,11,176,43,176,13,67,11,177
   957 00003A18 A701000BB02BB00D43-
   957 00003A21 0BB1               
   958 00003A23 2BB10D440AB32AB313-          DB 43,177,13,68,10,179,42,179,19,181,51,181,63,77,7,182,39,182,33,83
   958 00003A2C B533B53F4D07B627B6-
   958 00003A35 2153               
   959 00003A37 FDA72FB70600404B0B-          DB 253,167,47,183,6,0,64,75,11,176,43,176,0,67,7,177,39,177,0,68
   959 00003A40 B02BB0004307B127B1-
   959 00003A49 0044               
   960 00003A4B 0AB22AB200450AB32A-          DB 10,178,42,178,0,69,10,179,42,179,252,165,18,181,50,181,8,77,7,182
   960 00003A54 B3FCA512B532B5084D-
   960 00003A5D 07B6               
   961 00003A5F 27B60853FBA80EB82E-          DB 39,182,8,83,251,168,14,184,46,184,4,85,1,0,94,167,50,183,1,0
   961 00003A68 B8045501005EA732B7-
   961 00003A71 0100               
   962 00003A73 FCA70100FDA72FB701-          DB 252,167,1,0,253,167,47,183,1,0,94,167,50,183,1,0,252,167,1,0
   962 00003A7C 005EA732B70100FCA7-
   962 00003A85 0100               
   963 00003A87 484B0BB02BB00D4307-          DB 72,75,11,176,43,176,13,67,7,177,39,177,13,68,10,179,42,179,76,75
   963 00003A90 B127B10D440AB32AB3-
   963 00003A99 4C4B               
   964 00003A9B 8EA513B533B50A4D07-          DB 142,165,19,181,51,181,10,77,7,182,39,182,33,83,253,167,47,183,6,0
   964 00003AA4 B627B62153FDA72FB7-
   964 00003AAD 0600               
   965 00003AAF 0FB02FB000430BB12B-          DB 15,176,47,176,0,67,11,177,43,177,0,68,10,179,42,179,253,165,19,181
   965 00003AB8 B100440AB32AB3FDA5-
   965 00003AC1 13B5               
   966 00003AC3 33B50C4D07B627B608-          DB 51,181,12,77,7,182,39,182,8,83,14,184,46,184,9,85,1,0,94,167
   966 00003ACC 530EB82EB809550100-
   966 00003AD5 5EA7               
   967 00003AD7 32B70100FCA70100FD-          DB 50,183,1,0,252,167,1,0,253,167,47,183,1,0,94,167,50,183,1,0
   967 00003AE0 A72FB701005EA732B7-
   967 00003AE9 0100               
   968 00003AEB FCA701000BB02BB00D-          DB 252,167,1,0,11,176,43,176,13,67,7,177,39,177,13,68,10,179,42,179
   968 00003AF4 4307B127B10D440AB3-
   968 00003AFD 2AB3               
   969 00003AFF 13B533B53F4D07B627-          DB 19,181,51,181,63,77,7,182,39,182,33,83,253,167,47,183,6,0,64,75
   969 00003B08 B62153FDA72FB70600-
   969 00003B11 404B               
   970 00003B13 0BB02BB0004307B127-          DB 11,176,43,176,0,67,7,177,39,177,0,68,10,178,42,178,3,69,10,179
   970 00003B1C B100440AB22AB20345-
   970 00003B25 0AB3               
   971 00003B27 2AB307B627B6085328-          DB 42,179,7,182,39,182,8,83,40,168,15,184,47,184,4,85,1,0,94,167
   971 00003B30 A80FB82FB804550100-
   971 00003B39 5EA7               
   972 00003B3B 32B70100FCA70100FD-          DB 50,183,1,0,252,167,1,0,253,167,47,183,1,0,94,167,50,183,1,0
   972 00003B44 A72FB701005EA732B7-
   972 00003B4D 0100               
   973 00003B4F FCA70100484B0FB02F-          DB 252,167,1,0,72,75,15,176,47,176,13,67,11,177,43,177,13,68,10,179
   973 00003B58 B00D430BB12BB10D44-
   973 00003B61 0AB3               
   974 00003B63 2AB34C4B07B627B621-          DB 42,179,76,75,7,182,39,182,33,83,253,167,47,183,6,0,11,176,43,176
   974 00003B6C 53FDA72FB706000BB0-
   974 00003B75 2BB0               
   975 00003B77 004307B127B100440A-          DB 0,67,7,177,39,177,0,68,10,179,42,179,7,182,39,182,8,83,251,168
   975 00003B80 B32AB307B627B60853-
   975 00003B89 FBA8               
   976 00003B8B 0EB82EB8095501005E-          DB 14,184,46,184,9,85,1,0,94,167,50,183,1,0,252,167,1,0,253,167
   976 00003B94 A732B70100FCA70100-
   976 00003B9D FDA7               
   977 00003B9F 2FB701005EA732B701-          DB 47,183,1,0,94,167,50,183,1,0,252,167,1,0,11,176,43,176,13,67
   977 00003BA8 00FCA701000BB02BB0-
   977 00003BB1 0D43               
   978 00003BB3 07B127B10D440AB32A-          DB 7,177,39,177,13,68,10,179,42,179,7,182,39,182,43,83,253,167,47,183
   978 00003BBC B307B627B62B53FDA7-
   978 00003BC5 2FB7               
   979 00003BC7 0600404B0BB02BB000-          DB 6,0,64,75,11,176,43,176,0,67,11,177,43,177,0,68,10,178,42,178
   979 00003BD0 430BB12BB100440AB2-
   979 00003BD9 2AB2               
   980 00003BDB 00450AB32AB31CA60A-          DB 0,69,10,179,42,179,28,166,10,182,42,182,4,83,15,183,47,183,253,168
   980 00003BE4 B62AB604530FB72FB7-
   980 00003BED FDA8               
   981 00003BEF 0FB82FB8045501005E-          DB 15,184,47,184,4,85,1,0,94,167,50,183,1,0,208,167,1,0,253,167
   981 00003BF8 A732B70100D0A70100-
   981 00003C01 FDA7               
   982 00003C03 2FB701005EA732B701-          DB 47,183,1,0,94,167,50,183,1,0,208,167,1,0,72,75,7,176,39,176
   982 00003C0C 00D0A70100484B07B0-
   982 00003C15 27B0               
   983 00003C17 0D4307B127B10D440A-          DB 13,67,7,177,39,177,13,68,10,179,42,179,76,75,253,166,7,182,39,182
   983 00003C20 B32AB34C4BFDA607B6-
   983 00003C29 27B6               
   984 00003C2B 2153FDA72FB7060007-          DB 33,83,253,167,47,183,6,0,7,176,39,176,0,67,7,177,39,177,0,68
   984 00003C34 B027B0004307B127B1-
   984 00003C3D 0044               
   985 00003C3F 0AB32AB307B627B608-          DB 10,179,42,179,7,182,39,182,8,83,15,184,47,184,9,85,1,0,94,167
   985 00003C48 530FB82FB809550100-
   985 00003C51 5EA7               
   986 00003C53 32B70100D0A70100FD-          DB 50,183,1,0,208,167,1,0,253,167,47,183,1,0,94,167,50,183,1,0
   986 00003C5C A72FB701005EA732B7-
   986 00003C65 0100               
   987 00003C67 D0A701000BB02BB00D-          DB 208,167,1,0,11,176,43,176,13,67,11,177,43,177,13,68,10,179,42,179
   987 00003C70 430BB12BB10D440AB3-
   987 00003C79 2AB3               
   988 00003C7B 07B627B62153FDA72F-          DB 7,182,39,182,33,83,253,167,47,183,6,0,64,75,7,176,39,176,0,67
   988 00003C84 B70600404B07B027B0-
   988 00003C8D 0043               
   989 00003C8F 07B127B100440AB22A-          DB 7,177,39,177,0,68,10,178,42,178,3,69,10,179,42,179,252,165,18,181
   989 00003C98 B203450AB32AB3FCA5-
   989 00003CA1 12B5               
   990 00003CA3 32B5044D07B627B608-          DB 50,181,4,77,7,182,39,182,8,83,28,168,18,184,50,184,4,85,1,0
   990 00003CAC 531CA812B832B80455-
   990 00003CB5 0100               
   991 00003CB7 5EA732B70100D0A701-          DB 94,167,50,183,1,0,208,167,1,0,253,167,47,183,1,0,94,167,50,183
   991 00003CC0 00FDA72FB701005EA7-
   991 00003CC9 32B7               
   992 00003CCB 0100D0A70100484B07-          DB 1,0,208,167,1,0,72,75,7,176,39,176,13,67,7,177,39,177,13,68
   992 00003CD4 B027B00D4307B127B1-
   992 00003CDD 0D44               
   993 00003CDF 0AB32AB34C4B8EA513-          DB 10,179,42,179,76,75,142,165,19,181,51,181,7,182,39,182,33,83,253,167
   993 00003CE8 B533B507B627B62153-
   993 00003CF1 FDA7               
   994 00003CF3 2FB706000BB02BB000-          DB 47,183,6,0,11,176,43,176,0,67,11,177,43,177,0,68,10,179,42,179
   994 00003CFC 430BB12BB100440AB3-
   994 00003D05 2AB3               
   995 00003D07 FDA513B533B507B627-          DB 253,165,19,181,51,181,7,182,39,182,8,83,253,168,15,184,47,184,9,85
   995 00003D10 B60853FDA80FB82FB8-
   995 00003D19 0955               
   996 00003D1B 01005EA732B70100D0-          DB 1,0,94,167,50,183,1,0,208,167,1,0,253,167,47,183,1,0,94,167
   996 00003D24 A70100FDA72FB70100-
   996 00003D2D 5EA7               
   997 00003D2F 32B70100D0A7010007-          DB 50,183,1,0,208,167,1,0,7,176,39,176,13,67,7,177,39,177,13,68
   997 00003D38 B027B00D4307B127B1-
   997 00003D41 0D44               
   998 00003D43 0AB32AB313B533B53F-          DB 10,179,42,179,19,181,51,181,63,77,7,182,39,182,33,83,253,167,47,183
   998 00003D4C 4D07B627B62153FDA7-
   998 00003D55 2FB7               
   999 00003D57 0600404B1CA00AB02A-          DB 6,0,64,75,28,160,10,176,42,176,0,67,28,161,10,177,42,177,0,68
   999 00003D60 B000431CA10AB12AB1-
   999 00003D69 0044               
  1000 00003D6B 0AB22AB200450AB32A-          DB 10,178,42,178,0,69,10,179,42,179,252,165,18,181,50,181,8,77,7,182
  1000 00003D74 B3FCA512B532B5084D-
  1000 00003D7D 07B6               
  1001 00003D7F 27B60853FCA812B832-          DB 39,182,8,83,252,168,18,184,50,184,4,85,1,0,94,167,50,183,1,0
  1001 00003D88 B8045501005EA732B7-
  1001 00003D91 0100               
  1002 00003D93 D0A70100FDA72FB701-          DB 208,167,1,0,253,167,47,183,1,0,94,167,50,183,1,0,208,167,1,0
  1002 00003D9C 005EA732B70100D0A7-
  1002 00003DA5 0100               
  1003 00003DA7 484BFDA00BB02BB00D-          DB 72,75,253,160,11,176,43,176,13,67,253,161,11,177,43,177,13,68,10,179
  1003 00003DB0 43FDA10BB12BB10D44-
  1003 00003DB9 0AB3               
  1004 00003DBB 2AB34C4B8EA513B533-          DB 42,179,76,75,142,165,19,181,51,181,10,77,7,182,39,182,33,83,253,167
  1004 00003DC4 B50A4D07B627B62153-
  1004 00003DCD FDA7               
  1005 00003DCF 2FB706001CA00AB02A-          DB 47,183,6,0,28,160,10,176,42,176,0,67,28,161,10,177,42,177,0,68
  1005 00003DD8 B000431CA10AB12AB1-
  1005 00003DE1 0044               
  1006 00003DE3 0AB32AB3FDA513B533-          DB 10,179,42,179,253,165,19,181,51,181,12,77,7,182,39,182,8,83,208,168
  1006 00003DEC B50C4D07B627B60853-
  1006 00003DF5 D0A8               
  1007 00003DF7 12B832B8095501005E-          DB 18,184,50,184,9,85,1,0,94,167,50,183,1,0,208,167,1,0,253,167
  1007 00003E00 A732B70100D0A70100-
  1007 00003E09 FDA7               
  1008 00003E0B 2FB701005EA732B701-          DB 47,183,1,0,94,167,50,183,1,0,208,167,1,0,10,176,42,176,13,67
  1008 00003E14 00D0A701000AB02AB0-
  1008 00003E1D 0D43               
  1009 00003E1F 0AB12AB10D440AB32A-          DB 10,177,42,177,13,68,10,179,42,179,19,181,51,181,63,77,7,182,39,182
  1009 00003E28 B313B533B53F4D07B6-
  1009 00003E31 27B6               
  1010 00003E33 2153FDA72FB7060040-          DB 33,83,253,167,47,183,6,0,64,75,14,176,46,176,0,67,14,177,46,177
  1010 00003E3C 4B0EB02EB000430EB1-
  1010 00003E45 2EB1               
  1011 00003E47 00440AB22AB203450A-          DB 0,68,10,178,42,178,3,69,10,179,42,179,7,182,39,182,8,83,15,183
  1011 00003E50 B32AB307B627B60853-
  1011 00003E59 0FB7               
  1012 00003E5B 2FB7FDA80FB82FB804-          DB 47,183,253,168,15,184,47,184,4,85,1,0,94,167,50,183,1,0,40,167
  1012 00003E64 5501005EA732B70100-
  1012 00003E6D 28A7               
  1013 00003E6F 33B70100FDA72FB701-          DB 51,183,1,0,253,167,47,183,1,0,94,167,50,183,1,0,40,167,51,183
  1013 00003E78 005EA732B7010028A7-
  1013 00003E81 33B7               
  1014 00003E83 0100484B0AB02AB00D-          DB 1,0,72,75,10,176,42,176,13,67,10,177,42,177,13,68,10,179,42,179
  1014 00003E8C 430AB12AB10D440AB3-
  1014 00003E95 2AB3               
  1015 00003E97 4C4B07B627B62153FD-          DB 76,75,7,182,39,182,33,83,253,167,47,183,141,168,15,184,47,184,7,0
  1015 00003EA0 A72FB78DA80FB82FB8-
  1015 00003EA9 0700               
  1016 00003EAB 002A002D084A004DF8-          DB 0,42,0,45,8,74,0,77,248,106,244,109,38,138,71,141,2,234,10,176
  1016 00003EB4 6AF46D268A478D02EA-
  1016 00003EBD 0AB0               
  1017 00003EBF 2AB000430AB12AB100-          DB 42,176,0,67,10,177,42,177,0,68,10,178,42,178,0,69,10,179,42,179
  1017 00003EC8 440AB22AB200450AB3-
  1017 00003ED1 2AB3               
  1018 00003ED3 0FB42FB40BB52BB508-          DB 15,180,47,180,11,181,43,181,8,77,7,182,39,182,8,83,168,168,18,184
  1018 00003EDC 4D07B627B60853A8A8-
  1018 00003EE5 12B8               
  1019 00003EE7 32B80955010028A733-          DB 50,184,9,85,1,0,40,167,51,183,2,0,94,167,50,183,2,0,40,167
  1019 00003EF0 B702005EA732B70200-
  1019 00003EF9 28A7               
  1020 00003EFB 33B701000EB02EB00D-          DB 51,183,1,0,14,176,46,176,13,67,14,177,46,177,13,68,10,179,42,179
  1020 00003F04 430EB12EB10D440AB3-
  1020 00003F0D 2AB3               
  1021 00003F0F 07B627B62B53FDA72F-          DB 7,182,39,182,43,83,253,167,47,183,252,168,18,184,50,184,4,85,6,0
  1021 00003F18 B7FCA812B832B80455-
  1021 00003F21 0600               
  1022 00003F23 404BFDA007B027B000-          DB 64,75,253,160,7,176,39,176,0,67,253,161,7,177,39,177,0,68,10,178
  1022 00003F2C 43FDA107B127B10044-
  1022 00003F35 0AB2               
  1023 00003F37 2AB20AB32AB30FB42F-          DB 42,178,10,179,42,179,15,180,47,180,11,181,43,181,7,182,39,182,4,83
  1023 00003F40 B40BB52BB507B627B6-
  1023 00003F49 0453               
  1024 00003F4B 0FB72FB7FDA80FB82F-          DB 15,183,47,183,253,168,15,184,47,184,1,0,94,167,50,183,1,0,252,167
  1024 00003F54 B801005EA732B70100-
  1024 00003F5D FCA7               
  1025 00003F5F 0100FDA72FB701005E-          DB 1,0,253,167,47,183,1,0,94,167,50,183,1,0,252,167,1,0,72,75
  1025 00003F68 A732B70100FCA70100-
  1025 00003F71 484B               
  1026 00003F73 1CA00AB02AB00D431C-          DB 28,160,10,176,42,176,13,67,28,161,10,177,42,177,13,68,10,179,42,179
  1026 00003F7C A10AB12AB10D440AB3-
  1026 00003F85 2AB3               
  1027 00003F87 4C4B07B627B62153FD-          DB 76,75,7,182,39,182,33,83,253,167,47,183,6,0,253,160,7,176,39,176
  1027 00003F90 A72FB70600FDA007B0-
  1027 00003F99 27B0               
  1028 00003F9B 0043FDA107B127B100-          DB 0,67,253,161,7,177,39,177,0,68,10,179,42,179,7,182,39,182,8,83
  1028 00003FA4 440AB32AB307B627B6-
  1028 00003FAD 0853               
  1029 00003FAF 0FB82FB8095501005E-          DB 15,184,47,184,9,85,1,0,94,167,50,183,1,0,252,167,1,0,253,167
  1029 00003FB8 A732B70100FCA70100-
  1029 00003FC1 FDA7               
  1030 00003FC3 2FB701005EA732B701-          DB 47,183,1,0,94,167,50,183,1,0,252,167,1,0,7,176,39,176,13,67
  1030 00003FCC 00FCA7010007B027B0-
  1030 00003FD5 0D43               
  1031 00003FD7 07B127B10D440AB32A-          DB 7,177,39,177,13,68,10,179,42,179,7,182,39,182,33,83,253,167,47,183
  1031 00003FE0 B307B627B62153FDA7-
  1031 00003FE9 2FB7               
  1032 00003FEB 0600404B412AC22D06-          DB 6,0,64,75,65,42,194,45,6,74,0,77,35,106,242,109,240,138,240,141
  1032 00003FF4 4A004D236AF26DF08A-
  1032 00003FFD F08D               
  1033 00003FFF 01EA0BB02BB000430B-          DB 1,234,11,176,43,176,0,67,11,177,43,177,0,68,10,178,42,178,3,69
  1033 00004008 B12BB100440AB22AB2-
  1033 00004011 0345               
  1034 00004013 0AB32AB3FCA512B532-          DB 10,179,42,179,252,165,18,181,50,181,4,77,7,182,39,182,8,83,28,168
  1034 0000401C B5044D07B627B60853-
  1034 00004025 1CA8               
  1035 00004027 12B832B8045501005E-          DB 18,184,50,184,4,85,1,0,94,167,50,183,1,0,252,167,1,0,253,167
  1035 00004030 A732B70100FCA70100-
  1035 00004039 FDA7               
  1036 0000403B 2FB701005EA732B701-          DB 47,183,1,0,94,167,50,183,1,0,252,167,1,0,72,75,7,176,39,176
  1036 00004044 00FCA70100484B07B0-
  1036 0000404D 27B0               
  1037 0000404F 0D4307B127B10D440A-          DB 13,67,7,177,39,177,13,68,10,179,42,179,76,75,142,165,19,181,51,181
  1037 00004058 B32AB34C4B8EA513B5-
  1037 00004061 33B5               
  1038 00004063 07B627B62153FDA72F-          DB 7,182,39,182,33,83,253,167,47,183,6,0,7,176,39,176,0,67,7,177
  1038 0000406C B7060007B027B00043-
  1038 00004075 07B1               
  1039 00004077 27B100440AB32AB3FD-          DB 39,177,0,68,10,179,42,179,253,165,19,181,51,181,7,182,39,182,8,83
  1039 00004080 A513B533B507B627B6-
  1039 00004089 0853               
  1040 0000408B FDA80FB82FB8095501-          DB 253,168,15,184,47,184,9,85,1,0,94,167,50,183,1,0,252,167,1,0
  1040 00004094 005EA732B70100FCA7-
  1040 0000409D 0100               
  1041 0000409F FDA72FB701005EA732-          DB 253,167,47,183,1,0,94,167,50,183,1,0,252,167,1,0,11,176,43,176
  1041 000040A8 B70100FCA701000BB0-
  1041 000040B1 2BB0               
  1042 000040B3 0D430BB12BB10D440A-          DB 13,67,11,177,43,177,13,68,10,179,42,179,19,181,51,181,63,77,7,182
  1042 000040BC B32AB313B533B53F4D-
  1042 000040C5 07B6               
  1043 000040C7 27B62153FDA72FB706-          DB 39,182,33,83,253,167,47,183,6,0,64,75,11,176,43,176,0,67,7,177
  1043 000040D0 00404B0BB02BB00043-
  1043 000040D9 07B1               
  1044 000040DB 27B100440AB22AB200-          DB 39,177,0,68,10,178,42,178,0,69,10,179,42,179,252,165,18,181,50,181
  1044 000040E4 450AB32AB3FCA512B5-
  1044 000040ED 32B5               
  1045 000040EF 084D07B627B60853FB-          DB 8,77,7,182,39,182,8,83,251,168,14,184,46,184,4,85,1,0,94,167
  1045 000040F8 A80EB82EB804550100-
  1045 00004101 5EA7               
  1046 00004103 32B70100FCA70100FD-          DB 50,183,1,0,252,167,1,0,253,167,47,183,1,0,94,167,50,183,1,0
  1046 0000410C A72FB701005EA732B7-
  1046 00004115 0100               
  1047 00004117 FCA70100484B0BB02B-          DB 252,167,1,0,72,75,11,176,43,176,13,67,7,177,39,177,13,68,10,179
  1047 00004120 B00D4307B127B10D44-
  1047 00004129 0AB3               
  1048 0000412B 2AB34C4B8EA513B533-          DB 42,179,76,75,142,165,19,181,51,181,10,77,7,182,39,182,33,83,253,167
  1048 00004134 B50A4D07B627B62153-
  1048 0000413D FDA7               
  1049 0000413F 2FB706000FB02FB000-          DB 47,183,6,0,15,176,47,176,0,67,11,177,43,177,0,68,10,179,42,179
  1049 00004148 430BB12BB100440AB3-
  1049 00004151 2AB3               
  1050 00004153 FDA513B533B50C4D07-          DB 253,165,19,181,51,181,12,77,7,182,39,182,8,83,14,184,46,184,9,85
  1050 0000415C B627B608530EB82EB8-
  1050 00004165 0955               
  1051 00004167 01005EA732B70100FC-          DB 1,0,94,167,50,183,1,0,252,167,1,0,253,167,47,183,1,0,94,167
  1051 00004170 A70100FDA72FB70100-
  1051 00004179 5EA7               
  1052 0000417B 32B70100FCA701000B-          DB 50,183,1,0,252,167,1,0,11,176,43,176,13,67,7,177,39,177,13,68
  1052 00004184 B02BB00D4307B127B1-
  1052 0000418D 0D44               
  1053 0000418F 0AB32AB313B533B53F-          DB 10,179,42,179,19,181,51,181,63,77,7,182,39,182,33,83,253,167,47,183
  1053 00004198 4D07B627B62153FDA7-
  1053 000041A1 2FB7               
  1054 000041A3 0600404B0BB02BB000-          DB 6,0,64,75,11,176,43,176,0,67,7,177,39,177,0,68,10,178,42,178
  1054 000041AC 4307B127B100440AB2-
  1054 000041B5 2AB2               
  1055 000041B7 03450AB32AB307B627-          DB 3,69,10,179,42,179,7,182,39,182,8,83,40,168,15,184,47,184,4,85
  1055 000041C0 B6085328A80FB82FB8-
  1055 000041C9 0455               
  1056 000041CB 01005EA732B70100FC-          DB 1,0,94,167,50,183,1,0,252,167,1,0,253,167,47,183,1,0,94,167
  1056 000041D4 A70100FDA72FB70100-
  1056 000041DD 5EA7               
  1057 000041DF 32B70100FCA7010048-          DB 50,183,1,0,252,167,1,0,72,75,15,176,47,176,13,67,11,177,43,177
  1057 000041E8 4B0FB02FB00D430BB1-
  1057 000041F1 2BB1               
  1058 000041F3 0D440AB32AB34C4B07-          DB 13,68,10,179,42,179,76,75,7,182,39,182,33,83,253,167,47,183,6,0
  1058 000041FC B627B62153FDA72FB7-
  1058 00004205 0600               
  1059 00004207 0BB02BB0004307B127-          DB 11,176,43,176,0,67,7,177,39,177,0,68,10,179,42,179,7,182,39,182
  1059 00004210 B100440AB32AB307B6-
  1059 00004219 27B6               
  1060 0000421B 0853FBA80EB82EB809-          DB 8,83,251,168,14,184,46,184,9,85,1,0,94,167,50,183,1,0,252,167
  1060 00004224 5501005EA732B70100-
  1060 0000422D FCA7               
  1061 0000422F 0100FDA72FB701005E-          DB 1,0,253,167,47,183,1,0,94,167,50,183,1,0,252,167,1,0,11,176
  1061 00004238 A732B70100FCA70100-
  1061 00004241 0BB0               
  1062 00004243 2BB00D4307B127B10D-          DB 43,176,13,67,7,177,39,177,13,68,10,179,42,179,7,182,39,182,43,83
  1062 0000424C 440AB32AB307B627B6-
  1062 00004255 2B53               
  1063 00004257 FDA72FB70600404B00-          DB 253,167,47,183,6,0,64,75,0,42,0,45,8,74,0,77,248,106,244,109
  1063 00004260 2A002D084A004DF86A-
  1063 00004269 F46D               
  1064 0000426B 268A478D02EA8DA00B-          DB 38,138,71,141,2,234,141,160,11,176,43,176,0,67,141,161,11,177,43,177
  1064 00004274 B02BB000438DA10BB1-
  1064 0000427D 2BB1               
  1065 0000427F 00440AB22AB200450A-          DB 0,68,10,178,42,178,0,69,10,179,42,179,141,164,15,180,47,180,141,165
  1065 00004288 B32AB38DA40FB42FB4-
  1065 00004291 8DA5               
  1066 00004293 0BB52BB5084D8DA60B-          DB 11,181,43,181,8,77,141,166,11,182,43,182,4,83,141,167,15,183,47,183
  1066 0000429C B62BB604538DA70FB7-
  1066 000042A5 2FB7               
  1067 000042A7 FDA80FB82FB8045501-          DB 253,168,15,184,47,184,4,85,1,0,28,167,50,183,1,0,168,167,1,0
  1067 000042B0 001CA732B70100A8A7-
  1067 000042B9 0100               
  1068 000042BB 8DA72FB701001CA732-          DB 141,167,47,183,1,0,28,167,50,183,1,0,168,167,1,0,141,167,47,183
  1068 000042C4 B70100A8A701008DA7-
  1068 000042CD 2FB7               
  1069 000042CF 06000FB82FB8095501-          DB 6,0,15,184,47,184,9,85,1,0,28,167,50,183,1,0,168,167,1,0
  1069 000042D8 001CA732B70100A8A7-
  1069 000042E1 0100               
  1070 000042E3 8DA72FB701001CA732-          DB 141,167,47,183,1,0,28,167,50,183,1,0,168,167,1,0,141,167,47,183
  1070 000042EC B70100A8A701008DA7-
  1070 000042F5 2FB7               
  1071 000042F7 0600412AC22D064A00-          DB 6,0,65,42,194,45,6,74,0,77,35,106,242,109,240,138,240,141,1,234
  1071 00004300 4D236AF26DF08AF08D-
  1071 00004309 01EA               
  1072 0000430B 0AB22AB2FCA512B532-          DB 10,178,42,178,252,165,18,181,50,181,4,77,28,168,18,184,50,184,4,85
  1072 00004314 B5044D1CA812B832B8-
  1072 0000431D 0455               
  1073 0000431F 01001CA732B7010089-          DB 1,0,28,167,50,183,1,0,137,166,168,167,1,0,136,166,141,167,47,183
  1073 00004328 A6A8A7010088A68DA7-
  1073 00004331 2FB7               
  1074 00004333 010089A61CA732B701-          DB 1,0,137,166,28,167,50,183,1,0,141,166,168,167,1,0,142,165,19,181
  1074 0000433C 008DA6A8A701008EA5-
  1074 00004345 13B5               
  1075 00004347 33B58DA72FB7010091-          DB 51,181,141,167,47,183,1,0,145,166,1,0,147,166,1,0,145,166,1,0
  1075 00004350 A6010093A6010091A6-
  1075 00004359 0100               
  1076 0000435B 8DA6010089A60100FD-          DB 141,166,1,0,137,166,1,0,253,165,19,181,51,181,253,168,15,184,47,184
  1076 00004364 A513B533B5FDA80FB8-
  1076 0000436D 2FB8               
  1077 0000436F 0955010088A61CA732-          DB 9,85,1,0,136,166,28,167,50,183,1,0,137,166,168,167,1,0,141,166
  1077 00004378 B7010089A6A8A70100-
  1077 00004381 8DA6               
  1078 00004383 8DA72FB7010091A61C-          DB 141,167,47,183,1,0,145,166,28,167,50,183,1,0,147,166,168,167,1,0
  1078 0000438C A732B7010093A6A8A7-
  1078 00004395 0100               
  1079 00004397 13B533B53F4D8DA72F-          DB 19,181,51,181,63,77,141,167,47,183,1,0,145,166,1,0,141,166,1,0
  1079 000043A0 B7010091A601008DA6-
  1079 000043A9 0100               
  1080 000043AB 89A6010088A6010089-          DB 137,166,1,0,136,166,1,0,137,166,1,0,10,178,42,178,252,165,18,181
  1080 000043B4 A601000AB22AB2FCA5-
  1080 000043BD 12B5               
  1081 000043BF 32B5084DFBA80EB82E-          DB 50,181,8,77,251,168,14,184,46,184,4,85,1,0,243,166,42,182,28,167
  1081 000043C8 B804550100F3A62AB6-
  1081 000043D1 1CA7               
  1082 000043D3 32B7010088A6A8A701-          DB 50,183,1,0,136,166,168,167,1,0,56,166,141,167,47,183,1,0,243,166
  1082 000043DC 0038A68DA72FB70100-
  1082 000043E5 F3A6               
  1083 000043E7 27B61CA732B701008E-          DB 39,182,28,167,50,183,1,0,142,166,168,167,1,0,142,165,19,181,51,181
  1083 000043F0 A6A8A701008EA513B5-
  1083 000043F9 33B5               
  1084 000043FB 0A4D8DA72FB701003C-          DB 10,77,141,167,47,183,1,0,60,166,1,0,247,166,38,182,1,0,189,166
  1084 00004404 A60100F7A626B60100-
  1084 0000440D BDA6               
  1085 0000440F 01008BA6010060A601-          DB 1,0,139,166,1,0,96,166,1,0,253,165,19,181,51,181,12,77,168,168
  1085 00004418 00FDA513B533B50C4D-
  1085 00004421 A8A8               
  1086 00004423 0EB82EB8095501003A-          DB 14,184,46,184,9,85,1,0,58,166,28,167,50,183,1,0,25,166,168,167
  1086 0000442C A61CA732B7010019A6-
  1086 00004435 A8A7               
  1087 00004437 0100F6A623B68DA72F-          DB 1,0,246,166,35,182,141,167,47,183,1,0,193,166,28,167,50,183,1,0
  1087 00004440 B70100C1A61CA732B7-
  1087 00004449 0100               
  1088 0000444B 91A6A8A7010013B533-          DB 145,166,168,167,1,0,19,181,51,181,63,77,141,167,47,183,1,0,101,166
  1088 00004454 B53F4D8DA72FB70100-
  1088 0000445D 65A6               
  1089 0000445F 01003EA601001AA601-          DB 1,0,62,166,1,0,26,166,1,0,249,166,34,182,1,0,218,166,1,0
  1089 00004468 00F9A622B60100DAA6-
  1089 00004471 0100               
  1090 00004473 0AB22AB20FB42FB417-          DB 10,178,42,178,15,180,47,180,23,76,15,183,47,183,28,168,18,184,50,184
  1090 0000447C 4C0FB72FB71CA812B8-
  1090 00004485 32B8               
  1091 00004487 04550100BFA61CA732-          DB 4,85,1,0,191,166,28,167,50,183,1,0,164,166,208,167,1,0,140,166
  1091 00004490 B70100A4A6D0A70100-
  1091 00004499 8CA6               
  1092 0000449B 8DA72FB7010076A61C-          DB 141,167,47,183,1,0,118,166,28,167,50,183,1,0,97,166,208,167,1,0
  1092 000044A4 A732B7010061A6D0A7-
  1092 000044AD 0100               
  1093 000044AF 0AB22AB205450FB42F-          DB 10,178,42,178,5,69,15,180,47,180,18,76,141,167,47,183,1,0,77,166
  1093 000044B8 B4124C8DA72FB70100-
  1093 000044C1 4DA6               
  1094 000044C3 01003BA6010029A601-          DB 1,0,59,166,1,0,41,166,1,0,26,166,1,0,10,166,1,0,10,178
  1094 000044CC 001AA601000AA60100-
  1094 000044D5 0AB2               
  1095 000044D7 2AB200450FB42FB40D-          DB 42,178,0,69,15,180,47,180,13,76,141,168,15,184,47,184,9,85,1,0
  1095 000044E0 4C8DA80FB82FB80955-
  1095 000044E9 0100               
  1096 000044EB FBA621B61CA732B701-          DB 251,166,33,182,28,167,50,183,1,0,238,166,208,167,1,0,225,166,141,167
  1096 000044F4 00EEA6D0A70100E1A6-
  1096 000044FD 8DA7               
  1097 000044FF 2FB70100D4A61CA732-          DB 47,183,1,0,212,166,28,167,50,183,1,0,201,166,208,167,1,0,10,178
  1097 00004508 B70100C9A6D0A70100-
  1097 00004511 0AB2               
  1098 00004513 2AB205450FB42FB40B-          DB 42,178,5,69,15,180,47,180,11,76,141,167,47,183,1,0,190,166,1,0
  1098 0000451C 4C8DA72FB70100BEA6-
  1098 00004525 0100               
  1099 00004527 B3A60100A9A601009F-          DB 179,166,1,0,169,166,1,0,159,166,1,0,150,166,1,0,1,32,67,35
  1099 00004530 A6010096A601000120-
  1099 00004539 4323               
  1100 0000453B 4040F260F3635080F0-          DB 64,64,242,96,243,99,80,128,240,131,2,224,10,192,0,41,0,44,192,73
  1100 00004544 8302E00AC00029002C-
  1100 0000454D C049               
  1101 0000454F 004CF869D26CF0891F-          DB 0,76,248,105,210,108,240,137,31,140,0,233,10,196,0,42,0,45,192,74
  1101 00004558 8C00E90AC4002A002D-
  1101 00004561 C04A               
  1102 00004563 004DF86AD26D1F8D00-          DB 0,77,248,106,210,109,31,141,0,234,10,197,0,48,0,51,192,80,0,83
  1102 0000456C EA0AC500300033C050-
  1102 00004575 0053               
  1103 00004577 F870D2731F9300F00A-          DB 248,112,210,115,31,147,0,240,10,198,0,49,0,52,192,81,0,84,248,113
  1103 00004580 C600310034C0510054-
  1103 00004589 F871               
  1104 0000458B D2741F9400F10AC700-          DB 210,116,31,148,0,241,10,199,0,50,0,53,192,82,0,85,248,114,210,117
  1104 00004594 320035C0520055F872-
  1104 0000459D D275               
  1105 0000459F 1F9500F20AC8FDA00F-          DB 31,149,0,242,10,200,253,160,15,176,47,176,13,67,253,161,7,177,39,177
  1105 000045A8 B02FB00D43FDA107B1-
  1105 000045B1 27B1               
  1106 000045B3 0AB22AB23F450AB32A-          DB 10,178,42,178,63,69,10,179,42,179,167,164,10,180,42,180,63,76,167,165
  1106 000045BC B3A7A40AB42AB43F4C-
  1106 000045C5 A7A5               
  1107 000045C7 0AB52AB5044DA7A60A-          DB 10,181,42,181,4,77,167,166,10,182,42,182,63,83,167,167,10,183,42,183
  1107 000045D0 B62AB63F53A7A70AB7-
  1107 000045D9 2AB7               
  1108 000045DB 3F54A7A80AB82AB83F-          DB 63,84,167,168,10,184,42,184,63,85,6,0,72,75,40,160,19,176,51,176
  1108 000045E4 550600484B28A013B0-
  1108 000045ED 33B0               
  1109 000045EF 17431CA10AB12AB10D-          DB 23,67,28,161,10,177,42,177,13,68,10,179,42,179,76,75,6,0,253,160
  1109 000045F8 440AB32AB34C4B0600-
  1109 00004601 FDA0               
  1110 00004603 0FB02FB00B43FDA107-          DB 15,176,47,176,11,67,253,161,7,177,39,177,0,68,10,179,42,179,6,0
  1110 0000460C B127B100440AB32AB3-
  1110 00004615 0600               
  1111 00004617 0FB02FB0154307B127-          DB 15,176,47,176,21,67,7,177,39,177,13,68,10,179,42,179,6,0,64,75
  1111 00004620 B10D440AB32AB30600-
  1111 00004629 404B               
  1112 0000462B 4129C22C0649004C23-          DB 65,41,194,44,6,73,0,76,35,105,242,108,240,140,1,233,4,196,252,160
  1112 00004634 69F26CF08C01E904C4-
  1112 0000463D FCA0               
  1113 0000463F 12B032B009430BB12B-          DB 18,176,50,176,9,67,11,177,43,177,0,68,10,179,42,179,252,164,18,180
  1113 00004648 B100440AB32AB3FCA4-
  1113 00004651 12B4               
  1114 00004653 32B4044C0AB52AB506-          DB 50,180,4,76,10,181,42,181,6,0,72,75,253,160,15,176,47,176,19,67
  1114 0000465C 00484BFDA00FB02FB0-
  1114 00004665 1343               
  1115 00004667 07B127B10D440AB32A-          DB 7,177,39,177,13,68,10,179,42,179,76,75,253,164,19,180,51,180,6,0
  1115 00004670 B34C4BFDA413B433B4-
  1115 00004679 0600               
  1116 0000467B 0FB02FB0074307B127-          DB 15,176,47,176,7,67,7,177,39,177,0,68,10,179,42,179,61,164,22,180
  1116 00004684 B100440AB32AB33DA4-
  1116 0000468D 16B4               
  1117 0000468F 36B40600FCA012B032-          DB 54,180,6,0,252,160,18,176,50,176,17,67,11,177,43,177,13,68,10,179
  1117 00004698 B011430BB12BB10D44-
  1117 000046A1 0AB3               
  1118 000046A3 2AB35EA416B436B406-          DB 42,179,94,164,22,180,54,180,6,0,64,75,40,160,19,176,51,176,5,67
  1118 000046AC 00404B28A013B033B0-
  1118 000046B5 0543               
  1119 000046B7 07B127B100440AB32A-          DB 7,177,39,177,0,68,10,179,42,179,252,164,18,180,50,180,8,76,10,181
  1119 000046C0 B3FCA412B432B4084C-
  1119 000046C9 0AB5               
  1120 000046CB 2AB50600484BFDA00F-          DB 42,181,6,0,72,75,253,160,15,176,47,176,15,67,7,177,39,177,13,68
  1120 000046D4 B02FB00F4307B127B1-
  1120 000046DD 0D44               
  1121 000046DF 0AB32AB34C4BFDA413-          DB 10,179,42,179,76,75,253,164,19,180,51,180,11,76,6,0,15,176,47,176
  1121 000046E8 B433B40B4C06000FB0-
  1121 000046F1 2FB0               
  1122 000046F3 03430BB12BB100440A-          DB 3,67,11,177,43,177,0,68,10,179,42,179,61,164,22,180,54,180,13,76
  1122 000046FC B32AB33DA416B436B4-
  1122 00004705 0D4C               
  1123 00004707 060028A013B033B00D-          DB 6,0,40,160,19,176,51,176,13,67,7,177,39,177,13,68,10,179,42,179
  1123 00004710 4307B127B10D440AB3-
  1123 00004719 2AB3               
  1124 0000471B 5EA416B436B4124C06-          DB 94,164,22,180,54,180,18,76,6,0,64,75,168,160,18,176,50,176,1,67
  1124 00004724 00404BA8A012B032B0-
  1124 0000472D 0143               
  1125 0000472F 07B127B100440AB32A-          DB 7,177,39,177,0,68,10,179,42,179,252,164,18,180,50,180,13,76,10,181
  1125 00004738 B3FCA412B432B40D4C-
  1125 00004741 0AB5               
  1126 00004743 2AB50600484BFDA00F-          DB 42,181,6,0,72,75,253,160,15,176,47,176,13,67,11,177,43,177,13,68
  1126 0000474C B02FB00D430BB12BB1-
  1126 00004755 0D44               
  1127 00004757 0AB32AB34C4BFDA413-          DB 10,179,42,179,76,75,253,164,19,180,51,180,11,76,6,0,252,160,18,176
  1127 00004760 B433B40B4C0600FCA0-
  1127 00004769 12B0               
  1128 0000476B 32B0004307B127B100-          DB 50,176,0,67,7,177,39,177,0,68,10,179,42,179,61,164,22,180,54,180
  1128 00004774 440AB32AB33DA416B4-
  1128 0000477D 36B4               
  1129 0000477F 094C0600A8A012B032-          DB 9,76,6,0,168,160,18,176,50,176,13,67,7,177,39,177,13,68,10,179
  1129 00004788 B00D4307B127B10D44-
  1129 00004791 0AB3               
  1130 00004793 2AB35EA416B436B408-          DB 42,179,94,164,22,180,54,180,8,76,6,0,64,75,253,160,15,176,47,176
  1130 0000479C 4C0600404BFDA00FB0-
  1130 000047A5 2FB0               
  1131 000047A7 03430BB12BB100440A-          DB 3,67,11,177,43,177,0,68,10,179,42,179,252,164,18,180,50,180,5,76
  1131 000047B0 B32AB3FCA412B432B4-
  1131 000047B9 054C               
  1132 000047BB 0AB52AB50600484BFC-          DB 10,181,42,181,6,0,72,75,252,160,18,176,50,176,13,67,7,177,39,177
  1132 000047C4 A012B032B00D4307B1-
  1132 000047CD 27B1               
  1133 000047CF 0D440AB32AB34C4BFD-          DB 13,68,10,179,42,179,76,75,253,164,19,180,51,180,3,76,6,0,253,160
  1133 000047D8 A413B433B4034C0600-
  1133 000047E1 FDA0               
  1134 000047E3 0FB02FB0034307B127-          DB 15,176,47,176,3,67,7,177,39,177,0,68,10,179,42,179,61,164,22,180
  1134 000047EC B100440AB32AB33DA4-
  1134 000047F5 16B4               
  1135 000047F7 36B4014C06000FB02F-          DB 54,180,1,76,6,0,15,176,47,176,13,67,11,177,43,177,13,68,10,179
  1135 00004800 B00D430BB12BB10D44-
  1135 00004809 0AB3               
  1136 0000480B 2AB35EA416B436B400-          DB 42,179,94,164,22,180,54,180,0,76,6,0,64,75,94,160,18,176,50,176
  1136 00004814 4C0600404B5EA012B0-
  1136 0000481D 32B0               
  1137 0000481F 034307B127B100440A-          DB 3,67,7,177,39,177,0,68,10,179,42,179,252,164,18,180,50,180,1,76
  1137 00004828 B32AB3FCA412B432B4-
  1137 00004831 014C               
  1138 00004833 0AB52AB50600484BFD-          DB 10,181,42,181,6,0,72,75,253,160,15,176,47,176,13,67,7,177,39,177
  1138 0000483C A00FB02FB00D4307B1-
  1138 00004845 27B1               
  1139 00004847 0D440AB32AB34C4BFD-          DB 13,68,10,179,42,179,76,75,253,164,19,180,51,180,3,76,6,0,15,176
  1139 00004850 A413B433B4034C0600-
  1139 00004859 0FB0               
  1140 0000485B 2FB003430BB12BB100-          DB 47,176,3,67,11,177,43,177,0,68,10,179,42,179,61,164,22,180,54,180
  1140 00004864 440AB32AB33DA416B4-
  1140 0000486D 36B4               
  1141 0000486F 044C07005EA012B032-          DB 4,76,7,0,94,160,18,176,50,176,13,67,7,177,39,177,13,68,10,179
  1141 00004878 B00D4307B127B10D44-
  1141 00004881 0AB3               
  1142 00004883 2AB35EA416B436B406-          DB 42,179,94,164,22,180,54,180,6,76,5,0,64,75,168,160,18,176,50,176
  1142 0000488C 4C0500404BA8A012B0-
  1142 00004895 32B0               
  1143 00004897 03431CA10AB12AB100-          DB 3,67,28,161,10,177,42,177,0,68,10,179,42,179,252,164,18,180,50,180
  1143 000048A0 440AB32AB3FCA412B4-
  1143 000048A9 32B4               
  1144 000048AB 074C0AB52AB5060048-          DB 7,76,10,181,42,181,6,0,72,75,253,160,15,176,47,176,13,67,253,161
  1144 000048B4 4BFDA00FB02FB00D43-
  1144 000048BD FDA1               
  1145 000048BF 0BB12BB10D440AB32A-          DB 11,177,43,177,13,68,10,179,42,179,76,75,253,164,19,180,51,180,8,76
  1145 000048C8 B34C4BFDA413B433B4-
  1145 000048D1 084C               
  1146 000048D3 07000FB02FB003431C-          DB 7,0,15,176,47,176,3,67,28,161,10,177,42,177,0,68,10,179,42,179
  1146 000048DC A10AB12AB100440AB3-
  1146 000048E5 2AB3               
  1147 000048E7 3DA416B436B40A4C06-          DB 61,164,22,180,54,180,10,76,6,0,168,160,18,176,50,176,13,67,10,177
  1147 000048F0 00A8A012B032B00D43-
  1147 000048F9 0AB1               
  1148 000048FB 2AB10D440AB32AB35E-          DB 42,177,13,68,10,179,42,179,94,164,22,180,54,180,11,76,6,0,64,75
  1148 00004904 A416B436B40B4C0600-
  1148 0000490D 404B               
  1149 0000490F 3DA012B032B003430E-          DB 61,160,18,176,50,176,3,67,14,177,46,177,0,68,10,179,42,179,252,164
  1149 00004918 B12EB100440AB32AB3-
  1149 00004921 FCA4               
  1150 00004923 12B432B40D4C0AB52A-          DB 18,180,50,180,13,76,10,181,42,181,6,0,72,75,253,160,15,176,47,176
  1150 0000492C B50600484BFDA00FB0-
  1150 00004935 2FB0               
  1151 00004937 0D430AB12AB10D440A-          DB 13,67,10,177,42,177,13,68,10,179,42,179,76,75,253,164,19,180,51,180
  1151 00004940 B32AB34C4BFDA413B4-
  1151 00004949 33B4               
  1152 0000494B 0F4C06005EA012B032-          DB 15,76,6,0,94,160,18,176,50,176,3,67,10,177,42,177,0,68,10,179
  1152 00004954 B003430AB12AB10044-
  1152 0000495D 0AB3               
  1153 0000495F 2AB33DA416B436B411-          DB 42,179,61,164,22,180,54,180,17,76,10,181,42,181,6,0,61,160,18,176
  1153 00004968 4C0AB52AB506003DA0-
  1153 00004971 12B0               
  1154 00004973 32B00D430EB12EB10D-          DB 50,176,13,67,14,177,46,177,13,68,10,179,42,179,94,164,22,180,54,180
  1154 0000497C 440AB32AB35EA416B4-
  1154 00004985 36B4               
  1155 00004987 134C0600404BFDA00F-          DB 19,76,6,0,64,75,253,160,15,176,47,176,3,67,253,161,7,177,39,177
  1155 00004990 B02FB00343FDA107B1-
  1155 00004999 27B1               
  1156 0000499B 00440AB32AB3FCA412-          DB 0,68,10,179,42,179,252,164,18,180,50,180,21,76,10,181,42,181,6,0
  1156 000049A4 B432B4154C0AB52AB5-
  1156 000049AD 0600               
  1157 000049AF 484B28A013B033B00D-          DB 72,75,40,160,19,176,51,176,13,67,28,161,10,177,42,177,13,68,10,179
  1157 000049B8 431CA10AB12AB10D44-
  1157 000049C1 0AB3               
  1158 000049C3 2AB34C4BFDA413B433-          DB 42,179,76,75,253,164,19,180,51,180,19,76,6,0,253,160,15,176,47,176
  1158 000049CC B4134C0600FDA00FB0-
  1158 000049D5 2FB0               
  1159 000049D7 0343FDA107B127B100-          DB 3,67,253,161,7,177,39,177,0,68,10,179,42,179,61,164,22,180,54,180
  1159 000049E0 440AB32AB33DA416B4-
  1159 000049E9 36B4               
  1160 000049EB 114C06000FB02FB00D-          DB 17,76,6,0,15,176,47,176,13,67,7,177,39,177,13,68,10,179,42,179
  1160 000049F4 4307B127B10D440AB3-
  1160 000049FD 2AB3               
  1161 000049FF 5EA416B436B40F4C06-          DB 94,164,22,180,54,180,15,76,6,0,64,75,252,160,18,176,50,176,3,67
  1161 00004A08 00404BFCA012B032B0-
  1161 00004A11 0343               
  1162 00004A13 0BB12BB100440AB32A-          DB 11,177,43,177,0,68,10,179,42,179,252,164,18,180,50,180,13,76,10,181
  1162 00004A1C B3FCA412B432B40D4C-
  1162 00004A25 0AB5               
  1163 00004A27 2AB50600484BFDA00F-          DB 42,181,6,0,72,75,253,160,15,176,47,176,13,67,7,177,39,177,13,68
  1163 00004A30 B02FB00D4307B127B1-
  1163 00004A39 0D44               
  1164 00004A3B 0AB32AB34C4BFDA413-          DB 10,179,42,179,76,75,253,164,19,180,51,180,11,76,6,0,15,176,47,176
  1164 00004A44 B433B40B4C06000FB0-
  1164 00004A4D 2FB0               
  1165 00004A4F 034307B127B100440A-          DB 3,67,7,177,39,177,0,68,10,179,42,179,61,164,22,180,54,180,9,76
  1165 00004A58 B32AB33DA416B436B4-
  1165 00004A61 094C               
  1166 00004A63 0600FCA012B032B00D-          DB 6,0,252,160,18,176,50,176,13,67,11,177,43,177,13,68,10,179,42,179
  1166 00004A6C 430BB12BB10D440AB3-
  1166 00004A75 2AB3               
  1167 00004A77 5EA416B436B4074C06-          DB 94,164,22,180,54,180,7,76,6,0,64,75,40,160,19,176,51,176,3,67
  1167 00004A80 00404B28A013B033B0-
  1167 00004A89 0343               
  1168 00004A8B 07B127B100440AB32A-          DB 7,177,39,177,0,68,10,179,42,179,252,164,18,180,50,180,9,76,10,181
  1168 00004A94 B3FCA412B432B4094C-
  1168 00004A9D 0AB5               
  1169 00004A9F 2AB50600484BFDA00F-          DB 42,181,6,0,72,75,253,160,15,176,47,176,13,67,7,177,39,177,13,68
  1169 00004AA8 B02FB00D4307B127B1-
  1169 00004AB1 0D44               
  1170 00004AB3 0AB32AB34C4BFDA413-          DB 10,179,42,179,76,75,253,164,19,180,51,180,11,76,6,0,15,176,47,176
  1170 00004ABC B433B40B4C06000FB0-
  1170 00004AC5 2FB0               
  1171 00004AC7 03430BB12BB100440A-          DB 3,67,11,177,43,177,0,68,10,179,42,179,61,164,22,180,54,180,13,76
  1171 00004AD0 B32AB33DA416B436B4-
  1171 00004AD9 0D4C               
  1172 00004ADB 060028A013B033B00D-          DB 6,0,40,160,19,176,51,176,13,67,7,177,39,177,13,68,10,179,42,179
  1172 00004AE4 4307B127B10D440AB3-
  1172 00004AED 2AB3               
  1173 00004AEF 5EA416B436B40F4C06-          DB 94,164,22,180,54,180,15,76,6,0,64,75,168,160,18,176,50,176,3,67
  1173 00004AF8 00404BA8A012B032B0-
  1173 00004B01 0343               
  1174 00004B03 07B127B100440AB32A-          DB 7,177,39,177,0,68,10,179,42,179,252,164,18,180,50,180,17,76,10,181
  1174 00004B0C B3FCA412B432B4114C-
  1174 00004B15 0AB5               
  1175 00004B17 2AB50600484BFDA00F-          DB 42,181,6,0,72,75,253,160,15,176,47,176,13,67,11,177,43,177,13,68
  1175 00004B20 B02FB00D430BB12BB1-
  1175 00004B29 0D44               
  1176 00004B2B 0AB32AB34C4BFDA413-          DB 10,179,42,179,76,75,253,164,19,180,51,180,19,76,6,0,252,160,18,176
  1176 00004B34 B433B4134C0600FCA0-
  1176 00004B3D 12B0               
  1177 00004B3F 32B0034307B127B100-          DB 50,176,3,67,7,177,39,177,0,68,10,179,42,179,61,164,22,180,54,180
  1177 00004B48 440AB32AB33DA416B4-
  1177 00004B51 36B4               
  1178 00004B53 154C0600A8A012B032-          DB 21,76,6,0,168,160,18,176,50,176,13,67,7,177,39,177,13,68,10,179
  1178 00004B5C B00D4307B127B10D44-
  1178 00004B65 0AB3               
  1179 00004B67 2AB35EA416B436B417-          DB 42,179,94,164,22,180,54,180,23,76,6,0,65,33,194,36,0,68,35,97
  1179 00004B70 4C06004121C2240044-
  1179 00004B79 2361               
  1180 00004B7B F264F08104C1404BFD-          DB 242,100,240,129,4,193,64,75,253,160,15,176,47,176,3,67,11,177,43,177
  1180 00004B84 A00FB02FB003430BB1-
  1180 00004B8D 2BB1               
  1181 00004B8F 04440AB32AB3FDA413-          DB 4,68,10,179,42,179,253,164,19,180,51,180,21,76,10,181,42,181,6,0
  1181 00004B98 B433B4154C0AB52AB5-
  1181 00004BA1 0600               
  1182 00004BA3 484BFCA012B032B00D-          DB 72,75,252,160,18,176,50,176,13,67,10,179,42,179,76,75,6,0,253,160
  1182 00004BAC 430AB32AB34C4B0600-
  1182 00004BB5 FDA0               
  1183 00004BB7 0FB02FB003430AB32A-          DB 15,176,47,176,3,67,10,179,42,179,6,0,15,176,47,176,13,67,10,179
  1183 00004BC0 B306000FB02FB00D43-
  1183 00004BC9 0AB3               
  1184 00004BCB 2AB30600404B5EA012-          DB 42,179,6,0,64,75,94,160,18,176,50,176,3,67,10,179,42,179,10,181
  1184 00004BD4 B032B003430AB32AB3-
  1184 00004BDD 0AB5               
  1185 00004BDF 2AB50200F8A1EAA401-          DB 42,181,2,0,248,161,234,164,1,0,246,161,227,164,1,0,248,161,234,164
  1185 00004BE8 00F6A1E3A40100F8A1-
  1185 00004BF1 EAA4               
  1186 00004BF3 0100FDA1FDA4010048-          DB 1,0,253,161,253,164,1,0,72,75,253,160,15,176,47,176,13,67,10,179
  1186 00004BFC 4BFDA00FB02FB00D43-
  1186 00004C05 0AB3               
  1187 00004C07 2AB34C4B010001A12E-          DB 42,179,76,75,1,0,1,161,46,177,9,164,54,180,1,0,2,161,13,164
  1187 00004C10 B109A436B4010002A1-
  1187 00004C19 0DA4               
  1188 00004C1B 010001A109A40100FD-          DB 1,0,1,161,9,164,1,0,253,161,43,177,253,164,51,180,1,0,248,161
  1188 00004C24 A12BB1FDA433B40100-
  1188 00004C2D F8A1               
  1189 00004C2F EAA401000FB02FB003-          DB 234,164,1,0,15,176,47,176,3,67,10,179,42,179,1,0,246,161,227,164
  1189 00004C38 430AB32AB30100F6A1-
  1189 00004C41 E3A4               
  1190 00004C43 0100F8A1EAA40100FD-          DB 1,0,248,161,234,164,1,0,253,161,253,164,1,0,1,161,46,177,9,164
  1190 00004C4C A1FDA4010001A12EB1-
  1190 00004C55 09A4               
  1191 00004C57 36B4010002A10DA401-          DB 54,180,1,0,2,161,13,164,1,0,94,160,18,176,50,176,13,67,10,179
  1191 00004C60 005EA012B032B00D43-
  1191 00004C69 0AB3               
  1192 00004C6B 2AB3010001A109A401-          DB 42,179,1,0,1,161,9,164,1,0,253,161,43,177,253,164,51,180,1,0
  1192 00004C74 00FDA12BB1FDA433B4-
  1192 00004C7D 0100               
  1193 00004C7F F8A1EAA40100F6A1E3-          DB 248,161,234,164,1,0,246,161,227,164,1,0,248,161,234,164,1,0,64,75
  1193 00004C88 A40100F8A1EAA40100-
  1193 00004C91 404B               
  1194 00004C93 A8A012B032B003430A-          DB 168,160,18,176,50,176,3,67,10,179,42,179,10,181,42,181,1,0,63,161
  1194 00004C9C B32AB30AB52AB50100-
  1194 00004CA5 3FA1               
  1195 00004CA7 16A432B40100BFA12A-          DB 22,164,50,180,1,0,191,161,42,177,216,164,46,180,1,0,98,161,40,164
  1195 00004CB0 B1D8A42EB4010062A1-
  1195 00004CB9 28A4               
  1196 00004CBB 01001AA17AA42BB401-          DB 1,0,26,161,122,164,43,180,1,0,195,161,39,177,233,164,42,180,1,0
  1196 00004CC4 00C3A127B1E9A42AB4-
  1196 00004CCD 0100               
  1197 00004CCF 484BFDA00FB02FB00D-          DB 72,75,253,160,15,176,47,176,13,67,10,179,42,179,76,75,1,0,103,161
  1197 00004CD8 430AB32AB34C4B0100-
  1197 00004CE1 67A1               
  1198 00004CE3 81A401001BA132A401-          DB 129,164,1,0,27,161,50,164,1,0,220,161,38,177,234,164,39,180,1,0
  1198 00004CEC 00DCA126B1EAA427B4-
  1198 00004CF5 0100               
  1199 00004CF7 A6A187A4010077A136-          DB 166,161,135,164,1,0,119,161,54,164,1,0,15,176,47,176,3,67,10,179
  1199 00004D00 A401000FB02FB00343-
  1199 00004D09 0AB3               
  1200 00004D0B 2AB301004EA1F2A426-          DB 42,179,1,0,78,161,242,164,38,180,1,0,42,161,184,164,1,0,11,161
  1200 00004D14 B401002AA1B8A40100-
  1200 00004D1D 0BA1               
  1201 00004D1F 87A40100DDA123B15C-          DB 135,164,1,0,221,161,35,177,92,164,1,0,171,161,55,164,1,0,168,160
  1201 00004D28 A40100ABA137A40100-
  1201 00004D31 A8A0               
  1202 00004D33 12B032B00D430AB32A-          DB 18,176,50,176,13,67,10,179,42,179,1,0,125,161,22,164,1,0,83,161
  1202 00004D3C B301007DA116A40100-
  1202 00004D45 53A1               
  1203 00004D47 F1A423B401002DA1BC-          DB 241,164,35,180,1,0,45,161,188,164,1,0,11,161,141,164,1,0,235,161
  1203 00004D50 A401000BA18DA40100-
  1203 00004D59 EBA1               
  1204 00004D5B 22B162A40100404B50-          DB 34,177,98,164,1,0,64,75,80,48,64,51,0,80,0,83,242,112,246,115
  1204 00004D64 30403300500053F270-
  1204 00004D6D F673               
  1205 00004D6F 5290169303F00EC63D-          DB 82,144,22,147,3,240,14,198,61,160,18,176,50,176,3,67,10,179,42,179
  1205 00004D78 A012B032B003430AB3-
  1205 00004D81 2AB3               
  1206 00004D83 0AB52AB5FDA60FB62F-          DB 10,181,42,181,253,166,15,182,47,182,4,83,1,0,206,161,59,164,1,0
  1206 00004D8C B604530100CEA13BA4-
  1206 00004D95 0100               
  1207 00004D97 B2A117A4010099A1F6-          DB 178,161,23,164,1,0,153,161,246,164,34,180,1,0,130,161,216,164,1,0
  1207 00004DA0 A422B4010082A1D8A4-
  1207 00004DA9 0100               
  1208 00004DAB 6CA1BCA40100484BFD-          DB 108,161,188,164,1,0,72,75,253,160,15,176,47,176,13,67,10,179,42,179
  1208 00004DB4 A00FB02FB00D430AB3-
  1208 00004DBD 2AB3               
  1209 00004DBF 4C4B0AB52AB5010058-          DB 76,75,10,181,42,181,1,0,88,161,163,164,1,0,69,161,138,164,1,0
  1209 00004DC8 A1A3A4010045A18AA4-
  1209 00004DD1 0100               
  1210 00004DD3 33A174A4010022A15F-          DB 51,161,116,164,1,0,34,161,95,164,1,0,18,161,75,164,1,0,94,160
  1210 00004DDC A4010012A14BA40100-
  1210 00004DE5 5EA0               
  1211 00004DE7 12B032B003430AB32A-          DB 18,176,50,176,3,67,10,179,42,179,10,181,42,181,15,182,47,182,1,0
  1211 00004DF0 B30AB52AB50FB62FB6-
  1211 00004DF9 0100               
  1212 00004DFB 03A139A40100F5A121-          DB 3,161,57,164,1,0,245,161,33,177,40,164,1,0,232,161,24,164,1,0
  1212 00004E04 B128A40100E8A118A4-
  1212 00004E0D 0100               
  1213 00004E0F DBA109A40100CFA1FA-          DB 219,161,9,164,1,0,207,161,250,164,33,180,1,0,61,160,18,176,50,176
  1213 00004E18 A421B401003DA012B0-
  1213 00004E21 32B0               
  1214 00004E23 0D430AB32AB30AB52A-          DB 13,67,10,179,42,179,10,181,42,181,1,0,196,161,236,164,1,0,185,161
  1214 00004E2C B50100C4A1ECA40100-
  1214 00004E35 B9A1               
  1215 00004E37 E0A40100AEA1D3A401-          DB 224,164,1,0,174,161,211,164,1,0,164,161,200,164,1,0,155,161,188,164
  1215 00004E40 00A4A1C8A401009BA1-
  1215 00004E49 BCA4               
  1216 00004E4B 0100002101240044FF-          DB 1,0,0,33,1,36,0,68,255,97,229,100,35,129,0,193,64,75,0,48
  1216 00004E54 61E564238100C1404B-
  1216 00004E5D 0030               
  1217 00004E5F 003308500053F870F4-          DB 0,51,8,80,0,83,248,112,244,115,38,144,71,147,2,240,4,198,65,49
  1217 00004E68 732690479302F004C6-
  1217 00004E71 4131               
  1218 00004E73 C234065100542371F2-          DB 194,52,6,81,0,84,35,113,242,116,240,148,1,241,4,199,65,50,194,53
  1218 00004E7C 74F09401F104C74132-
  1218 00004E85 C235               
  1219 00004E87 065200552372F275F0-          DB 6,82,0,85,35,114,242,117,240,149,1,242,4,200,253,160,15,176,47,176
  1219 00004E90 9501F204C8FDA00FB0-
  1219 00004E99 2FB0               
  1220 00004E9B 0343FDA107B127B10A-          DB 3,67,253,161,7,177,39,177,10,178,42,178,0,69,10,179,42,179,168,164
  1220 00004EA4 B22AB200450AB32AB3-
  1220 00004EAD A8A4               
  1221 00004EAF 12B432B43F4C0AB52A-          DB 18,180,50,180,63,76,10,181,42,181,15,182,47,182,8,83,168,167,18,183
  1221 00004EB8 B50FB62FB60853A8A7-
  1221 00004EC1 12B7               
  1222 00004EC3 32B73F54A8A812B832-          DB 50,183,63,84,168,168,18,184,50,184,63,85,6,0,72,75,40,160,19,176
  1222 00004ECC B83F550600484B28A0-
  1222 00004ED5 13B0               
  1223 00004ED7 33B00D431CA10AB12A-          DB 51,176,13,67,28,161,10,177,42,177,13,68,10,179,42,179,76,75,40,166
  1223 00004EE0 B10D440AB32AB34C4B-
  1223 00004EE9 28A6               
  1224 00004EEB 13B633B617530600FD-          DB 19,182,51,182,23,83,6,0,253,160,15,176,47,176,3,67,253,161,7,177
  1224 00004EF4 A00FB02FB00343FDA1-
  1224 00004EFD 07B1               
  1225 00004EFF 27B100440AB32AB3FD-          DB 39,177,0,68,10,179,42,179,253,166,15,182,47,182,8,83,6,0,15,176
  1225 00004F08 A60FB62FB608530600-
  1225 00004F11 0FB0               
  1226 00004F13 2FB00D4307B127B10D-          DB 47,176,13,67,7,177,39,177,13,68,10,179,42,179,15,182,47,182,23,83
  1226 00004F1C 440AB32AB30FB62FB6-
  1226 00004F25 1753               
  1227 00004F27 0600404BFCA012B032-          DB 6,0,64,75,252,160,18,176,50,176,3,67,11,177,43,177,0,68,10,178
  1227 00004F30 B003430BB12BB10044-
  1227 00004F39 0AB2               
  1228 00004F3B 2AB20AB32AB30AB52A-          DB 42,178,10,179,42,179,10,181,42,181,252,166,18,182,50,182,8,83,6,0
  1228 00004F44 B5FCA612B632B60853-
  1228 00004F4D 0600               
  1229 00004F4F 484BFDA00FB02FB00D-          DB 72,75,253,160,15,176,47,176,13,67,7,177,39,177,13,68,10,179,42,179
  1229 00004F58 4307B127B10D440AB3-
  1229 00004F61 2AB3               
  1230 00004F63 4C4BFDA60FB62FB617-          DB 76,75,253,166,15,182,47,182,23,83,6,0,15,176,47,176,3,67,7,177
  1230 00004F6C 5306000FB02FB00343-
  1230 00004F75 07B1               
  1231 00004F77 27B100440AB32AB30F-          DB 39,177,0,68,10,179,42,179,15,182,47,182,8,83,6,0,252,160,18,176
  1231 00004F80 B62FB608530600FCA0-
  1231 00004F89 12B0               
  1232 00004F8B 32B00D430BB12BB10D-          DB 50,176,13,67,11,177,43,177,13,68,10,179,42,179,252,166,18,182,50,182
  1232 00004F94 440AB32AB3FCA612B6-
  1232 00004F9D 32B6               
  1233 00004F9F 17530600404B28A013-          DB 23,83,6,0,64,75,40,160,19,176,51,176,3,67,7,177,39,177,0,68
  1233 00004FA8 B033B0034307B127B1-
  1233 00004FB1 0044               
  1234 00004FB3 0AB22AB20AB32AB30A-          DB 10,178,42,178,10,179,42,179,10,181,42,181,40,166,19,182,51,182,8,83
  1234 00004FBC B52AB528A613B633B6-
  1234 00004FC5 0853               
  1235 00004FC7 0600484BFDA00FB02F-          DB 6,0,72,75,253,160,15,176,47,176,13,67,7,177,39,177,13,68,10,179
  1235 00004FD0 B00D4307B127B10D44-
  1235 00004FD9 0AB3               
  1236 00004FDB 2AB34C4BFDA60FB62F-          DB 42,179,76,75,253,166,15,182,47,182,23,83,6,0,15,176,47,176,3,67
  1236 00004FE4 B6175306000FB02FB0-
  1236 00004FED 0343               
  1237 00004FEF 0BB12BB100440AB32A-          DB 11,177,43,177,0,68,10,179,42,179,15,182,47,182,8,83,6,0,40,160
  1237 00004FF8 B30FB62FB608530600-
  1237 00005001 28A0               
  1238 00005003 13B033B00D4307B127-          DB 19,176,51,176,13,67,7,177,39,177,13,68,10,179,42,179,40,166,19,182
  1238 0000500C B10D440AB32AB328A6-
  1238 00005015 13B6               
  1239 00005017 33B617530600404BA8-          DB 51,182,23,83,6,0,64,75,168,160,18,176,50,176,3,67,7,177,39,177
  1239 00005020 A012B032B0034307B1-
  1239 00005029 27B1               
  1240 0000502B 00440AB22AB20AB32A-          DB 0,68,10,178,42,178,10,179,42,179,10,181,42,181,168,166,18,182,50,182
  1240 00005034 B30AB52AB5A8A612B6-
  1240 0000503D 32B6               
  1241 0000503F 08530600484BFDA00F-          DB 8,83,6,0,72,75,253,160,15,176,47,176,13,67,11,177,43,177,13,68
  1241 00005048 B02FB00D430BB12BB1-
  1241 00005051 0D44               
  1242 00005053 0AB32AB34C4BFDA60F-          DB 10,179,42,179,76,75,253,166,15,182,47,182,23,83,6,0,252,160,18,176
  1242 0000505C B62FB617530600FCA0-
  1242 00005065 12B0               
  1243 00005067 32B0034307B127B100-          DB 50,176,3,67,7,177,39,177,0,68,10,179,42,179,252,166,18,182,50,182
  1243 00005070 440AB32AB3FCA612B6-
  1243 00005079 32B6               
  1244 0000507B 08530600A8A012B032-          DB 8,83,6,0,168,160,18,176,50,176,13,67,7,177,39,177,13,68,10,179
  1244 00005084 B00D4307B127B10D44-
  1244 0000508D 0AB3               
  1245 0000508F 2AB3A8A612B632B617-          DB 42,179,168,166,18,182,50,182,23,83,6,0,64,75,253,160,15,176,47,176
  1245 00005098 530600404BFDA00FB0-
  1245 000050A1 2FB0               
  1246 000050A3 03430BB12BB100440A-          DB 3,67,11,177,43,177,0,68,10,178,42,178,10,179,42,179,10,181,42,181
  1246 000050AC B22AB20AB32AB30AB5-
  1246 000050B5 2AB5               
  1247 000050B7 FDA60FB62FB6085306-          DB 253,166,15,182,47,182,8,83,6,0,72,75,252,160,18,176,50,176,13,67
  1247 000050C0 00484BFCA012B032B0-
  1247 000050C9 0D43               
  1248 000050CB 07B127B10D440AB32A-          DB 7,177,39,177,13,68,10,179,42,179,76,75,252,166,18,182,50,182,23,83
  1248 000050D4 B34C4BFCA612B632B6-
  1248 000050DD 1753               
  1249 000050DF 0600FDA00FB02FB003-          DB 6,0,253,160,15,176,47,176,3,67,7,177,39,177,0,68,10,179,42,179
  1249 000050E8 4307B127B100440AB3-
  1249 000050F1 2AB3               
  1250 000050F3 FDA60FB62FB6085307-          DB 253,166,15,182,47,182,8,83,7,0,15,176,47,176,13,67,11,177,43,177
  1250 000050FC 000FB02FB00D430BB1-
  1250 00005105 2BB1               
  1251 00005107 0D440AB32AB30FB62F-          DB 13,68,10,179,42,179,15,182,47,182,23,83,6,0,64,75,94,160,18,176
  1251 00005110 B617530600404B5EA0-
  1251 00005119 12B0               
  1252 0000511B 32B0034307B127B100-          DB 50,176,3,67,7,177,39,177,0,68,10,178,42,178,10,179,42,179,10,181
  1252 00005124 440AB22AB20AB32AB3-
  1252 0000512D 0AB5               
  1253 0000512F 2AB55EA612B632B608-          DB 42,181,94,166,18,182,50,182,8,83,6,0,72,75,253,160,15,176,47,176
  1253 00005138 530600484BFDA00FB0-
  1253 00005141 2FB0               
  1254 00005143 0D4307B127B10D440A-          DB 13,67,7,177,39,177,13,68,10,179,42,179,76,75,253,166,15,182,47,182
  1254 0000514C B32AB34C4BFDA60FB6-
  1254 00005155 2FB6               
  1255 00005157 175306000FB02FB003-          DB 23,83,6,0,15,176,47,176,3,67,11,177,43,177,0,68,10,179,42,179
  1255 00005160 430BB12BB100440AB3-
  1255 00005169 2AB3               
  1256 0000516B 0FB62FB6085306005E-          DB 15,182,47,182,8,83,6,0,94,160,18,176,50,176,13,67,7,177,39,177
  1256 00005174 A012B032B00D4307B1-
  1256 0000517D 27B1               
  1257 0000517F 0D440AB32AB35EA612-          DB 13,68,10,179,42,179,94,166,18,182,50,182,23,83,6,0,64,75,168,160
  1257 00005188 B632B617530600404B-
  1257 00005191 A8A0               
  1258 00005193 12B032B003431CA10A-          DB 18,176,50,176,3,67,28,161,10,177,42,177,0,68,10,178,42,178,10,179
  1258 0000519C B12AB100440AB22AB2-
  1258 000051A5 0AB3               
  1259 000051A7 2AB30AB52AB5A8A612-          DB 42,179,10,181,42,181,168,166,18,182,50,182,8,83,6,0,72,75,253,160
  1259 000051B0 B632B608530600484B-
  1259 000051B9 FDA0               
  1260 000051BB 0FB02FB00D43FDA10B-          DB 15,176,47,176,13,67,253,161,11,177,43,177,13,68,10,179,42,179,76,75
  1260 000051C4 B12BB10D440AB32AB3-
  1260 000051CD 4C4B               
  1261 000051CF FDA60FB62FB6175306-          DB 253,166,15,182,47,182,23,83,6,0,15,176,47,176,3,67,28,161,10,177
  1261 000051D8 000FB02FB003431CA1-
  1261 000051E1 0AB1               
  1262 000051E3 2AB100440AB32AB30F-          DB 42,177,0,68,10,179,42,179,15,182,47,182,8,83,6,0,168,160,18,176
  1262 000051EC B62FB608530600A8A0-
  1262 000051F5 12B0               
  1263 000051F7 32B00D430AB12AB10D-          DB 50,176,13,67,10,177,42,177,13,68,10,179,42,179,168,166,18,182,50,182
  1263 00005200 440AB32AB3A8A612B6-
  1263 00005209 32B6               
  1264 0000520B 17530600404B3DA012-          DB 23,83,6,0,64,75,61,160,18,176,50,176,3,67,14,177,46,177,0,68
  1264 00005214 B032B003430EB12EB1-
  1264 0000521D 0044               
  1265 0000521F 0AB22AB20AB32AB30A-          DB 10,178,42,178,10,179,42,179,10,181,42,181,61,166,18,182,50,182,8,83
  1265 00005228 B52AB53DA612B632B6-
  1265 00005231 0853               
  1266 00005233 0600484BFDA00FB02F-          DB 6,0,72,75,253,160,15,176,47,176,13,67,10,177,42,177,13,68,10,179
  1266 0000523C B00D430AB12AB10D44-
  1266 00005245 0AB3               
  1267 00005247 2AB34C4BFDA60FB62F-          DB 42,179,76,75,253,166,15,182,47,182,23,83,6,0,94,160,18,176,50,176
  1267 00005250 B6175306005EA012B0-
  1267 00005259 32B0               
  1268 0000525B 03430AB12AB100440A-          DB 3,67,10,177,42,177,0,68,10,178,42,178,10,179,42,179,10,181,42,181
  1268 00005264 B22AB20AB32AB30AB5-
  1268 0000526D 2AB5               
  1269 0000526F 5EA612B632B6085306-          DB 94,166,18,182,50,182,8,83,6,0,61,160,18,176,50,176,13,67,14,177
  1269 00005278 003DA012B032B00D43-
  1269 00005281 0EB1               
  1270 00005283 2EB10D440AB32AB33D-          DB 46,177,13,68,10,179,42,179,61,166,18,182,50,182,23,83,6,0,64,75
  1270 0000528C A612B632B617530600-
  1270 00005295 404B               
  1271 00005297 FDA00FB02FB00343A7-          DB 253,160,15,176,47,176,3,67,167,161,10,177,42,177,0,68,10,178,42,178
  1271 000052A0 A10AB12AB100440AB2-
  1271 000052A9 2AB2               
  1272 000052AB 0AB32AB30AB52AB5FD-          DB 10,179,42,179,10,181,42,181,253,166,15,182,47,182,8,83,6,0,72,75
  1272 000052B4 A60FB62FB608530600-
  1272 000052BD 484B               
  1273 000052BF 28A013B033B00D43D0-          DB 40,160,19,176,51,176,13,67,208,161,10,177,42,177,13,68,10,179,42,179
  1273 000052C8 A10AB12AB10D440AB3-
  1273 000052D1 2AB3               
  1274 000052D3 4C4B28A613B633B617-          DB 76,75,40,166,19,182,51,182,23,83,6,0,253,160,15,176,47,176,3,67
  1274 000052DC 530600FDA00FB02FB0-
  1274 000052E5 0343               
  1275 000052E7 A7A10AB12AB100440A-          DB 167,161,10,177,42,177,0,68,10,179,42,179,253,166,15,182,47,182,8,83
  1275 000052F0 B32AB3FDA60FB62FB6-
  1275 000052F9 0853               
  1276 000052FB 06000FB02FB00D430A-          DB 6,0,15,176,47,176,13,67,10,177,42,177,13,68,10,179,42,179,15,182
  1276 00005304 B12AB10D440AB32AB3-
  1276 0000530D 0FB6               
  1277 0000530F 2FB617530600404BFC-          DB 47,182,23,83,6,0,64,75,252,160,18,176,50,176,3,67,168,161,14,177
  1277 00005318 A012B032B00343A8A1-
  1277 00005321 0EB1               
  1278 00005323 2EB100440AB22AB20A-          DB 46,177,0,68,10,178,42,178,10,179,42,179,10,181,42,181,252,166,18,182
  1278 0000532C B32AB30AB52AB5FCA6-
  1278 00005335 12B6               
  1279 00005337 32B608530600484BFD-          DB 50,182,8,83,6,0,72,75,253,160,15,176,47,176,13,67,167,161,10,177
  1279 00005340 A00FB02FB00D43A7A1-
  1279 00005349 0AB1               
  1280 0000534B 2AB10D440AB32AB34C-          DB 42,177,13,68,10,179,42,179,76,75,253,166,15,182,47,182,23,83,6,0
  1280 00005354 4BFDA60FB62FB61753-
  1280 0000535D 0600               
  1281 0000535F 0FB02FB003430AB12A-          DB 15,176,47,176,3,67,10,177,42,177,0,68,10,179,42,179,15,182,47,182
  1281 00005368 B100440AB32AB30FB6-
  1281 00005371 2FB6               
  1282 00005373 08530600FCA012B032-          DB 8,83,6,0,252,160,18,176,50,176,13,67,168,161,14,177,46,177,13,68
  1282 0000537C B00D43A8A10EB12EB1-
  1282 00005385 0D44               
  1283 00005387 0AB32AB3FCA612B632-          DB 10,179,42,179,252,166,18,182,50,182,23,83,6,0,64,75,40,160,19,176
  1283 00005390 B617530600404B28A0-
  1283 00005399 13B0               
  1284 0000539B 33B00343A7A10AB12A-          DB 51,176,3,67,167,161,10,177,42,177,0,68,10,178,42,178,10,179,42,179
  1284 000053A4 B100440AB22AB20AB3-
  1284 000053AD 2AB3               
  1285 000053AF 0AB52AB528A613B633-          DB 10,181,42,181,40,166,19,182,51,182,8,83,6,0,72,75,253,160,15,176
  1285 000053B8 B608530600484BFDA0-
  1285 000053C1 0FB0               
  1286 000053C3 2FB00D430AB12AB10D-          DB 47,176,13,67,10,177,42,177,13,68,10,179,42,179,76,75,253,166,15,182
  1286 000053CC 440AB32AB34C4BFDA6-
  1286 000053D5 0FB6               
  1287 000053D7 2FB6175306000FB02F-          DB 47,182,23,83,6,0,15,176,47,176,3,67,168,161,14,177,46,177,0,68
  1287 000053E0 B00343A8A10EB12EB1-
  1287 000053E9 0044               
  1288 000053EB 0AB32AB30FB62FB608-          DB 10,179,42,179,15,182,47,182,8,83,6,0,40,160,19,176,51,176,13,67
  1288 000053F4 53060028A013B033B0-
  1288 000053FD 0D43               
  1289 000053FF A7A10AB12AB10D440A-          DB 167,161,10,177,42,177,13,68,10,179,42,179,40,166,19,182,51,182,23,83
  1289 00005408 B32AB328A613B633B6-
  1289 00005411 1753               
  1290 00005413 0600404BA8A012B032-          DB 6,0,64,75,168,160,18,176,50,176,3,67,10,177,42,177,0,68,10,178
  1290 0000541C B003430AB12AB10044-
  1290 00005425 0AB2               
  1291 00005427 2AB20AB32AB30AB52A-          DB 42,178,10,179,42,179,10,181,42,181,168,166,18,182,50,182,8,83,6,0
  1291 00005430 B5A8A612B632B60853-
  1291 00005439 0600               
  1292 0000543B 484BFDA00FB02FB00D-          DB 72,75,253,160,15,176,47,176,13,67,168,161,14,177,46,177,13,68,10,179
  1292 00005444 43A8A10EB12EB10D44-
  1292 0000544D 0AB3               
  1293 0000544F 2AB34C4BFDA60FB62F-          DB 42,179,76,75,253,166,15,182,47,182,23,83,6,0,252,160,18,176,50,176
  1293 00005458 B617530600FCA012B0-
  1293 00005461 32B0               
  1294 00005463 0343A7A10AB12AB100-          DB 3,67,167,161,10,177,42,177,0,68,10,179,42,179,252,166,18,182,50,182
  1294 0000546C 440AB32AB3FCA612B6-
  1294 00005475 32B6               
  1295 00005477 08530600A8A012B032-          DB 8,83,6,0,168,160,18,176,50,176,13,67,10,177,42,177,13,68,10,179
  1295 00005480 B00D430AB12AB10D44-
  1295 00005489 0AB3               
  1296 0000548B 2AB3A8A612B632B617-          DB 42,179,168,166,18,182,50,182,23,83,6,0,64,75,253,160,15,176,47,176
  1296 00005494 530600404BFDA00FB0-
  1296 0000549D 2FB0               
  1297 0000549F 0343A8A10EB12EB100-          DB 3,67,168,161,14,177,46,177,0,68,10,178,42,178,10,179,42,179,10,181
  1297 000054A8 440AB22AB20AB32AB3-
  1297 000054B1 0AB5               
  1298 000054B3 2AB5FDA60FB62FB608-          DB 42,181,253,166,15,182,47,182,8,83,6,0,72,75,252,160,18,176,50,176
  1298 000054BC 530600484BFCA012B0-
  1298 000054C5 32B0               
  1299 000054C7 0D43A7A10AB12AB10D-          DB 13,67,167,161,10,177,42,177,13,68,10,179,42,179,76,75,252,166,18,182
  1299 000054D0 440AB32AB34C4BFCA6-
  1299 000054D9 12B6               
  1300 000054DB 32B617530600FDA00F-          DB 50,182,23,83,6,0,253,160,15,176,47,176,3,67,10,177,42,177,0,68
  1300 000054E4 B02FB003430AB12AB1-
  1300 000054ED 0044               
  1301 000054EF 0AB32AB3FDA60FB62F-          DB 10,179,42,179,253,166,15,182,47,182,8,83,6,0,15,176,47,176,13,67
  1301 000054F8 B6085306000FB02FB0-
  1301 00005501 0D43               
  1302 00005503 A8A10EB12EB10D440A-          DB 168,161,14,177,46,177,13,68,10,179,42,179,15,182,47,182,23,83,6,0
  1302 0000550C B32AB30FB62FB61753-
  1302 00005515 0600               
  1303 00005517 404B5EA012B032B003-          DB 64,75,94,160,18,176,50,176,3,67,167,161,10,177,42,177,0,68,10,178
  1303 00005520 43A7A10AB12AB10044-
  1303 00005529 0AB2               
  1304 0000552B 2AB20AB32AB30AB52A-          DB 42,178,10,179,42,179,10,181,42,181,94,166,18,182,50,182,8,83,6,0
  1304 00005534 B55EA612B632B60853-
  1304 0000553D 0600               
  1305 0000553F 484BFDA00FB02FB00D-          DB 72,75,253,160,15,176,47,176,13,67,10,177,42,177,13,68,10,179,42,179
  1305 00005548 430AB12AB10D440AB3-
  1305 00005551 2AB3               
  1306 00005553 4C4BFDA60FB62FB617-          DB 76,75,253,166,15,182,47,182,23,83,6,0,15,176,47,176,3,67,168,161
  1306 0000555C 5306000FB02FB00343-
  1306 00005565 A8A1               
  1307 00005567 0EB12EB100440AB32A-          DB 14,177,46,177,0,68,10,179,42,179,15,182,47,182,8,83,6,0,94,160
  1307 00005570 B30FB62FB608530600-
  1307 00005579 5EA0               
  1308 0000557B 12B032B00D43A7A10A-          DB 18,176,50,176,13,67,167,161,10,177,42,177,13,68,10,179,42,179,94,166
  1308 00005584 B12AB10D440AB32AB3-
  1308 0000558D 5EA6               
  1309 0000558F 12B632B61753060040-          DB 18,182,50,182,23,83,6,0,64,75,168,160,18,176,50,176,3,67,208,161
  1309 00005598 4BA8A012B032B00343-
  1309 000055A1 D0A1               
  1310 000055A3 0AB12AB100440AB22A-          DB 10,177,42,177,0,68,10,178,42,178,10,179,42,179,10,181,42,181,168,166
  1310 000055AC B20AB32AB30AB52AB5-
  1310 000055B5 A8A6               
  1311 000055B7 12B632B60853060048-          DB 18,182,50,182,8,83,6,0,72,75,253,160,15,176,47,176,13,67,168,161
  1311 000055C0 4BFDA00FB02FB00D43-
  1311 000055C9 A8A1               
  1312 000055CB 0EB12EB10D440AB32A-          DB 14,177,46,177,13,68,10,179,42,179,76,75,253,166,15,182,47,182,23,83
  1312 000055D4 B34C4BFDA60FB62FB6-
  1312 000055DD 1753               
  1313 000055DF 06000FB02FB00343D0-          DB 6,0,15,176,47,176,3,67,208,161,10,177,42,177,0,68,10,179,42,179
  1313 000055E8 A10AB12AB100440AB3-
  1313 000055F1 2AB3               
  1314 000055F3 0FB62FB608530600A8-          DB 15,182,47,182,8,83,6,0,168,160,18,176,50,176,13,67,10,177,42,177
  1314 000055FC A012B032B00D430AB1-
  1314 00005605 2AB1               
  1315 00005607 0D440AB32AB3A8A612-          DB 13,68,10,179,42,179,168,166,18,182,50,182,23,83,6,0,64,75,61,160
  1315 00005610 B632B617530600404B-
  1315 00005619 3DA0               
  1316 0000561B 12B032B003430EB12E-          DB 18,176,50,176,3,67,14,177,46,177,0,68,10,178,42,178,10,179,42,179
  1316 00005624 B100440AB22AB20AB3-
  1316 0000562D 2AB3               
  1317 0000562F 0AB52AB53DA612B632-          DB 10,181,42,181,61,166,18,182,50,182,8,83,6,0,72,75,253,160,15,176
  1317 00005638 B608530600484BFDA0-
  1317 00005641 0FB0               
  1318 00005643 2FB00D430AB12AB10D-          DB 47,176,13,67,10,177,42,177,13,68,10,178,42,178,10,179,42,179,76,75
  1318 0000564C 440AB22AB20AB32AB3-
  1318 00005655 4C4B               
  1319 00005657 0AB52AB5FDA60FB62F-          DB 10,181,42,181,253,166,15,182,47,182,23,83,6,0,94,160,18,176,50,176
  1319 00005660 B6175306005EA012B0-
  1319 00005669 32B0               
  1320 0000566B 03430AB12AB100440A-          DB 3,67,10,177,42,177,0,68,10,178,42,178,10,179,42,179,10,181,42,181
  1320 00005674 B22AB20AB32AB30AB5-
  1320 0000567D 2AB5               
  1321 0000567F 5EA612B632B6085306-          DB 94,166,18,182,50,182,8,83,6,0,61,160,18,176,50,176,13,67,14,177
  1321 00005688 003DA012B032B00D43-
  1321 00005691 0EB1               
  1322 00005693 2EB10D440AB22AB20A-          DB 46,177,13,68,10,178,42,178,10,179,42,179,10,181,42,181,61,166,18,182
  1322 0000569C B32AB30AB52AB53DA6-
  1322 000056A5 12B6               
  1323 000056A7 32B617530600404BFD-          DB 50,182,23,83,6,0,64,75,253,160,15,176,47,176,3,67,253,161,7,177
  1323 000056B0 A00FB02FB00343FDA1-
  1323 000056B9 07B1               
  1324 000056BB 27B100440AB22AB20A-          DB 39,177,0,68,10,178,42,178,10,179,42,179,18,180,50,180,7,76,10,181
  1324 000056C4 B32AB312B432B4074C-
  1324 000056CD 0AB5               
  1325 000056CF 2AB5FDA60FB62FB608-          DB 42,181,253,166,15,182,47,182,8,83,18,183,50,183,18,184,50,184,6,0
  1325 000056D8 5312B732B712B832B8-
  1325 000056E1 0600               
  1326 000056E3 484B28A013B033B00D-          DB 72,75,40,160,19,176,51,176,13,67,28,161,10,177,42,177,13,68,10,179
  1326 000056EC 431CA10AB12AB10D44-
  1326 000056F5 0AB3               
  1327 000056F7 2AB34C4B28A613B633-          DB 42,179,76,75,40,166,19,182,51,182,23,83,1,0,181,164,1,0,194,164
  1327 00005700 B617530100B5A40100-
  1327 00005709 C2A4               
  1328 0000570B 0100D0A40100DEA401-          DB 1,0,208,164,1,0,222,164,1,0,237,164,1,0,253,160,15,176,47,176
  1328 00005714 00EDA40100FDA00FB0-
  1328 0000571D 2FB0               
  1329 0000571F 0343FDA107B127B100-          DB 3,67,253,161,7,177,39,177,0,68,10,179,42,179,253,166,15,182,47,182
  1329 00005728 440AB32AB3FDA60FB6-
  1329 00005731 2FB6               
  1330 00005733 08530100FCA405000F-          DB 8,83,1,0,252,164,5,0,15,176,47,176,13,67,7,177,39,177,13,68
  1330 0000573C B02FB00D4307B127B1-
  1330 00005745 0D44               
  1331 00005747 0AB32AB30FB62FB617-          DB 10,179,42,179,15,182,47,182,23,83,18,183,50,183,13,84,6,0,64,75
  1331 00005750 5312B732B70D540600-
  1331 00005759 404B               
  1332 0000575B FCA012B032B003430B-          DB 252,160,18,176,50,176,3,67,11,177,43,177,0,68,10,178,42,178,10,179
  1332 00005764 B12BB100440AB22AB2-
  1332 0000576D 0AB3               
  1333 0000576F 2AB30AB52AB5FCA612-          DB 42,179,10,181,42,181,252,166,18,182,50,182,8,83,1,0,181,167,1,0
  1333 00005778 B632B608530100B5A7-
  1333 00005781 0100               
  1334 00005783 C2A70100D0A70100DE-          DB 194,167,1,0,208,167,1,0,222,167,1,0,237,167,1,0,72,75,253,160
  1334 0000578C A70100EDA70100484B-
  1334 00005795 FDA0               
  1335 00005797 0FB02FB00D4307B127-          DB 15,176,47,176,13,67,7,177,39,177,13,68,10,179,42,179,76,75,253,166
  1335 000057A0 B10D440AB32AB34C4B-
  1335 000057A9 FDA6               
  1336 000057AB 0FB62FB617530100FC-          DB 15,182,47,182,23,83,1,0,252,167,5,0,15,176,47,176,3,67,7,177
  1336 000057B4 A705000FB02FB00343-
  1336 000057BD 07B1               
  1337 000057BF 27B100440AB32AB30F-          DB 39,177,0,68,10,179,42,179,15,182,47,182,8,83,6,0,252,160,18,176
  1337 000057C8 B62FB608530600FCA0-
  1337 000057D1 12B0               
  1338 000057D3 32B00D430BB12BB10D-          DB 50,176,13,67,11,177,43,177,13,68,10,179,42,179,252,166,18,182,50,182
  1338 000057DC 440AB32AB3FCA612B6-
  1338 000057E5 32B6               
  1339 000057E7 17530600404B28A013-          DB 23,83,6,0,64,75,40,160,19,176,51,176,3,67,7,177,39,177,0,68
  1339 000057F0 B033B0034307B127B1-
  1339 000057F9 0044               
  1340 000057FB 0AB22AB20AB32AB30A-          DB 10,178,42,178,10,179,42,179,10,181,42,181,40,166,19,182,51,182,8,83
  1340 00005804 B52AB528A613B633B6-
  1340 0000580D 0853               
  1341 0000580F 0600484BFDA00FB02F-          DB 6,0,72,75,253,160,15,176,47,176,13,67,7,177,39,177,13,68,10,179
  1341 00005818 B00D4307B127B10D44-
  1341 00005821 0AB3               
  1342 00005823 2AB34C4BFDA60FB62F-          DB 42,179,76,75,253,166,15,182,47,182,23,83,6,0,15,176,47,176,3,67
  1342 0000582C B6175306000FB02FB0-
  1342 00005835 0343               
  1343 00005837 0BB12BB100440AB32A-          DB 11,177,43,177,0,68,10,179,42,179,15,182,47,182,8,83,6,0,40,160
  1343 00005840 B30FB62FB608530600-
  1343 00005849 28A0               
  1344 0000584B 13B033B00D4307B127-          DB 19,176,51,176,13,67,7,177,39,177,13,68,10,179,42,179,40,166,19,182
  1344 00005854 B10D440AB32AB328A6-
  1344 0000585D 13B6               
  1345 0000585F 33B617530700404BA8-          DB 51,182,23,83,7,0,64,75,168,160,18,176,50,176,3,67,7,177,39,177
  1345 00005868 A012B032B0034307B1-
  1345 00005871 27B1               
  1346 00005873 00440AB22AB20AB32A-          DB 0,68,10,178,42,178,10,179,42,179,10,181,42,181,168,166,18,182,50,182
  1346 0000587C B30AB52AB5A8A612B6-
  1346 00005885 32B6               
  1347 00005887 08530200DEA40100E7-          DB 8,83,2,0,222,164,1,0,231,164,2,0,252,164,1,0,72,75,253,160
  1347 00005890 A40200FCA40100484B-
  1347 00005899 FDA0               
  1348 0000589B 0FB02FB00D430BB12B-          DB 15,176,47,176,13,67,11,177,43,177,13,68,10,179,42,179,76,75,253,166
  1348 000058A4 B10D440AB32AB34C4B-
  1348 000058AD FDA6               
  1349 000058AF 0FB62FB61753010014-          DB 15,182,47,182,23,83,1,0,20,164,51,180,3,0,252,164,50,180,1,0
  1349 000058B8 A433B40300FCA432B4-
  1349 000058C1 0100               
  1350 000058C3 E7A40100FCA012B032-          DB 231,164,1,0,252,160,18,176,50,176,3,67,7,177,39,177,0,68,10,179
  1350 000058CC B0034307B127B10044-
  1350 000058D5 0AB3               
  1351 000058D7 2AB3FCA612B632B608-          DB 42,179,252,166,18,182,50,182,8,83,1,0,222,164,1,0,231,164,1,0
  1351 000058E0 530100DEA40100E7A4-
  1351 000058E9 0100               
  1352 000058EB FCA4010014A433B401-          DB 252,164,1,0,20,164,51,180,1,0,29,164,1,0,168,160,18,176,50,176
  1352 000058F4 001DA40100A8A012B0-
  1352 000058FD 32B0               
  1353 000058FF 0D4307B127B10D440A-          DB 13,67,7,177,39,177,13,68,10,179,42,179,168,166,18,182,50,182,23,83
  1353 00005908 B32AB3A8A612B632B6-
  1353 00005911 1753               
  1354 00005913 010014A40100FCA432-          DB 1,0,20,164,1,0,252,164,50,180,231,167,1,0,231,164,222,167,1,0
  1354 0000591C B4E7A70100E7A4DEA7-
  1354 00005925 0100               
  1355 00005927 DEA4E7A70100E7A4FC-          DB 222,164,231,167,1,0,231,164,252,167,1,0,64,75,253,160,15,176,47,176
  1355 00005930 A70100404BFDA00FB0-
  1355 00005939 2FB0               
  1356 0000593B 03430BB12BB100440A-          DB 3,67,11,177,43,177,0,68,10,178,42,178,10,179,42,179,10,181,42,181
  1356 00005944 B22AB20AB32AB30AB5-
  1356 0000594D 2AB5               
  1357 0000594F FDA60FB62FB6085301-          DB 253,166,15,182,47,182,8,83,1,0,252,164,20,167,51,183,1,0,20,164
  1357 00005958 00FCA414A733B70100-
  1357 00005961 14A4               
  1358 00005963 33B41DA701001DA414-          DB 51,180,29,167,1,0,29,164,20,167,1,0,20,164,252,167,50,183,1,0
  1358 0000596C A7010014A4FCA732B7-
  1358 00005975 0100               
  1359 00005977 FCA432B4E7A7010048-          DB 252,164,50,180,231,167,1,0,72,75,252,160,18,176,50,176,13,67,7,177
  1359 00005980 4BFCA012B032B00D43-
  1359 00005989 07B1               
  1360 0000598B 27B10D440AB32AB34C-          DB 39,177,13,68,10,179,42,179,76,75,252,166,18,182,50,182,23,83,1,0
  1360 00005994 4BFCA612B632B61753-
  1360 0000599D 0100               
  1361 0000599F E7A4DEA70100DEA4E7-          DB 231,164,222,167,1,0,222,164,231,167,1,0,231,164,252,167,1,0,252,164
  1361 000059A8 A70100E7A4FCA70100-
  1361 000059B1 FCA4               
  1362 000059B3 14A733B7010014A433-          DB 20,167,51,183,1,0,20,164,51,180,29,167,1,0,253,160,15,176,47,176
  1362 000059BC B41DA70100FDA00FB0-
  1362 000059C5 2FB0               
  1363 000059C7 034307B127B100440A-          DB 3,67,7,177,39,177,0,68,10,179,42,179,253,166,15,182,47,182,8,83
  1363 000059D0 B32AB3FDA60FB62FB6-
  1363 000059D9 0853               
  1364 000059DB 01001DA414A7010014-          DB 1,0,29,164,20,167,1,0,20,164,252,167,50,183,1,0,252,164,50,180
  1364 000059E4 A4FCA732B70100FCA4-
  1364 000059ED 32B4               
  1365 000059EF E7A70100E7A4DEA701-          DB 231,167,1,0,231,164,222,167,1,0,222,164,231,167,1,0,15,176,47,176
  1365 000059F8 00DEA4E7A701000FB0-
  1365 00005A01 2FB0               
  1366 00005A03 0D430BB12BB10D440A-          DB 13,67,11,177,43,177,13,68,10,179,42,179,15,182,47,182,23,83,1,0
  1366 00005A0C B32AB30FB62FB61753-
  1366 00005A15 0100               
  1367 00005A17 E7A4FCA70100FCA414-          DB 231,164,252,167,1,0,252,164,20,167,51,183,1,0,20,164,51,180,29,167
  1367 00005A20 A733B7010014A433B4-
  1367 00005A29 1DA7               
  1368 00005A2B 01001DA414A7010014-          DB 1,0,29,164,20,167,1,0,20,164,252,167,50,183,1,0,64,75,94,160
  1368 00005A34 A4FCA732B70100404B-
  1368 00005A3D 5EA0               
  1369 00005A3F 12B032B0034307B127-          DB 18,176,50,176,3,67,7,177,39,177,0,68,10,178,42,178,10,179,42,179
  1369 00005A48 B100440AB22AB20AB3-
  1369 00005A51 2AB3               
  1370 00005A53 0AB52AB55EA612B632-          DB 10,181,42,181,94,166,18,182,50,182,8,83,1,0,252,164,50,180,231,167
  1370 00005A5C B608530100FCA432B4-
  1370 00005A65 E7A7               
  1371 00005A67 0100E7A4DEA70100DE-          DB 1,0,231,164,222,167,1,0,222,164,231,167,1,0,231,164,252,167,1,0
  1371 00005A70 A4E7A70100E7A4FCA7-
  1371 00005A79 0100               
  1372 00005A7B FCA414A733B7010048-          DB 252,164,20,167,51,183,1,0,72,75,253,160,15,176,47,176,13,67,7,177
  1372 00005A84 4BFDA00FB02FB00D43-
  1372 00005A8D 07B1               
  1373 00005A8F 27B10D440AB32AB34C-          DB 39,177,13,68,10,179,42,179,76,75,253,166,15,182,47,182,23,83,1,0
  1373 00005A98 4BFDA60FB62FB61753-
  1373 00005AA1 0100               
  1374 00005AA3 14A433B41DA701001D-          DB 20,164,51,180,29,167,1,0,29,164,20,167,1,0,20,164,252,167,50,183
  1374 00005AAC A414A7010014A4FCA7-
  1374 00005AB5 32B7               
  1375 00005AB7 0100FCA432B4E7A701-          DB 1,0,252,164,50,180,231,167,1,0,231,164,222,167,1,0,15,176,47,176
  1375 00005AC0 00E7A4DEA701000FB0-
  1375 00005AC9 2FB0               
  1376 00005ACB 03430BB12BB100440A-          DB 3,67,11,177,43,177,0,68,10,179,42,179,15,182,47,182,8,83,1,0
  1376 00005AD4 B32AB30FB62FB60853-
  1376 00005ADD 0100               
  1377 00005ADF DEA4E7A70100E7A4FC-          DB 222,164,231,167,1,0,231,164,252,167,1,0,252,164,20,167,51,183,1,0
  1377 00005AE8 A70100FCA414A733B7-
  1377 00005AF1 0100               
  1378 00005AF3 14A433B41DA701001D-          DB 20,164,51,180,29,167,1,0,29,164,20,167,1,0,94,160,18,176,50,176
  1378 00005AFC A414A701005EA012B0-
  1378 00005B05 32B0               
  1379 00005B07 0D4307B127B10D440A-          DB 13,67,7,177,39,177,13,68,10,179,42,179,94,166,18,182,50,182,23,83
  1379 00005B10 B32AB35EA612B632B6-
  1379 00005B19 1753               
  1380 00005B1B 010014A4FCA732B701-          DB 1,0,20,164,252,167,50,183,1,0,252,164,50,180,231,167,1,0,231,164
  1380 00005B24 00FCA432B4E7A70100-
  1380 00005B2D E7A4               
  1381 00005B2F DEA70100DEA4E7A701-          DB 222,167,1,0,222,164,231,167,1,0,231,164,252,167,1,0,64,75,168,160
  1381 00005B38 00E7A4FCA70100404B-
  1381 00005B41 A8A0               
  1382 00005B43 12B032B003431CA10A-          DB 18,176,50,176,3,67,28,161,10,177,42,177,0,68,10,178,42,178,10,179
  1382 00005B4C B12AB100440AB22AB2-
  1382 00005B55 0AB3               
  1383 00005B57 2AB30AB52AB5A8A612-          DB 42,179,10,181,42,181,168,166,18,182,50,182,8,83,1,0,252,164,20,167
  1383 00005B60 B632B608530100FCA4-
  1383 00005B69 14A7               
  1384 00005B6B 33B7010014A433B41D-          DB 51,183,1,0,20,164,51,180,29,167,1,0,29,164,20,167,1,0,20,164
  1384 00005B74 A701001DA414A70100-
  1384 00005B7D 14A4               
  1385 00005B7F FCA732B70100FCA432-          DB 252,167,50,183,1,0,252,164,50,180,231,167,1,0,72,75,253,160,15,176
  1385 00005B88 B4E7A70100484BFDA0-
  1385 00005B91 0FB0               
  1386 00005B93 2FB00D43FDA10BB12B-          DB 47,176,13,67,253,161,11,177,43,177,13,68,10,179,42,179,76,75,253,166
  1386 00005B9C B10D440AB32AB34C4B-
  1386 00005BA5 FDA6               
  1387 00005BA7 0FB62FB617530100E7-          DB 15,182,47,182,23,83,1,0,231,164,222,167,1,0,222,164,231,167,1,0
  1387 00005BB0 A4DEA70100DEA4E7A7-
  1387 00005BB9 0100               
  1388 00005BBB E7A4FCA70100FCA414-          DB 231,164,252,167,1,0,252,164,20,167,51,183,1,0,20,164,51,180,29,167
  1388 00005BC4 A733B7010014A433B4-
  1388 00005BCD 1DA7               
  1389 00005BCF 01000FB02FB003431C-          DB 1,0,15,176,47,176,3,67,28,161,10,177,42,177,0,68,10,179,42,179
  1389 00005BD8 A10AB12AB100440AB3-
  1389 00005BE1 2AB3               
  1390 00005BE3 0FB62FB6085301001D-          DB 15,182,47,182,8,83,1,0,29,164,20,167,1,0,20,164,252,167,50,183
  1390 00005BEC A414A7010014A4FCA7-
  1390 00005BF5 32B7               
  1391 00005BF7 0100FCA432B4E7A701-          DB 1,0,252,164,50,180,231,167,1,0,231,164,222,167,1,0,222,164,231,167
  1391 00005C00 00E7A4DEA70100DEA4-
  1391 00005C09 E7A7               
  1392 00005C0B 0100A8A012B032B00D-          DB 1,0,168,160,18,176,50,176,13,67,10,177,42,177,13,68,10,179,42,179
  1392 00005C14 430AB12AB10D440AB3-
  1392 00005C1D 2AB3               
  1393 00005C1F A8A612B632B6175301-          DB 168,166,18,182,50,182,23,83,1,0,231,164,252,167,1,0,252,164,20,167
  1393 00005C28 00E7A4FCA70100FCA4-
  1393 00005C31 14A7               
  1394 00005C33 33B7010014A433B41D-          DB 51,183,1,0,20,164,51,180,29,167,1,0,29,164,20,167,1,0,20,164
  1394 00005C3C A701001DA414A70100-
  1394 00005C45 14A4               
  1395 00005C47 FCA732B70100404B3D-          DB 252,167,50,183,1,0,64,75,61,160,18,176,50,176,3,67,14,177,46,177
  1395 00005C50 A012B032B003430EB1-
  1395 00005C59 2EB1               
  1396 00005C5B 00440AB22AB20AB32A-          DB 0,68,10,178,42,178,10,179,42,179,10,181,42,181,61,166,18,182,50,182
  1396 00005C64 B30AB52AB53DA612B6-
  1396 00005C6D 32B6               
  1397 00005C6F 08530100FCA432B4E7-          DB 8,83,1,0,252,164,50,180,231,167,1,0,231,164,222,167,1,0,222,164
  1397 00005C78 A70100E7A4DEA70100-
  1397 00005C81 DEA4               
  1398 00005C83 E7A70100E7A4FCA701-          DB 231,167,1,0,231,164,252,167,1,0,252,164,20,167,51,183,1,0,72,75
  1398 00005C8C 00FCA414A733B70100-
  1398 00005C95 484B               
  1399 00005C97 FDA00FB02FB00D430A-          DB 253,160,15,176,47,176,13,67,10,177,42,177,13,68,10,179,42,179,76,75
  1399 00005CA0 B12AB10D440AB32AB3-
  1399 00005CA9 4C4B               
  1400 00005CAB FDA60FB62FB6175301-          DB 253,166,15,182,47,182,23,83,1,0,20,164,51,180,29,167,1,0,29,164
  1400 00005CB4 0014A433B41DA70100-
  1400 00005CBD 1DA4               
  1401 00005CBF 14A7010014A4FCA732-          DB 20,167,1,0,20,164,252,167,50,183,1,0,252,164,50,180,231,167,1,0
  1401 00005CC8 B70100FCA432B4E7A7-
  1401 00005CD1 0100               
  1402 00005CD3 E7A4DEA701005EA012-          DB 231,164,222,167,1,0,94,160,18,176,50,176,3,67,10,177,42,177,0,68
  1402 00005CDC B032B003430AB12AB1-
  1402 00005CE5 0044               
  1403 00005CE7 0AB22AB20AB32AB30A-          DB 10,178,42,178,10,179,42,179,10,181,42,181,94,166,18,182,50,182,8,83
  1403 00005CF0 B52AB55EA612B632B6-
  1403 00005CF9 0853               
  1404 00005CFB 0100DEA4E7A70100E7-          DB 1,0,222,164,231,167,1,0,231,164,252,167,1,0,252,164,20,167,51,183
  1404 00005D04 A4FCA70100FCA414A7-
  1404 00005D0D 33B7               
  1405 00005D0F 010014A433B41DA701-          DB 1,0,20,164,51,180,29,167,1,0,29,164,20,167,1,0,61,160,18,176
  1405 00005D18 001DA414A701003DA0-
  1405 00005D21 12B0               
  1406 00005D23 32B00D430EB12EB10D-          DB 50,176,13,67,14,177,46,177,13,68,10,179,42,179,61,166,18,182,50,182
  1406 00005D2C 440AB32AB33DA612B6-
  1406 00005D35 32B6               
  1407 00005D37 1753010014A4FCA732-          DB 23,83,1,0,20,164,252,167,50,183,1,0,252,164,50,180,231,167,1,0
  1407 00005D40 B70100FCA432B4E7A7-
  1407 00005D49 0100               
  1408 00005D4B E7A4DEA70100DEA4E7-          DB 231,164,222,167,1,0,222,164,231,167,1,0,231,164,252,167,1,0,64,75
  1408 00005D54 A70100E7A4FCA70100-
  1408 00005D5D 404B               
  1409 00005D5F FDA00FB02FB00343A7-          DB 253,160,15,176,47,176,3,67,167,161,10,177,42,177,0,68,10,178,42,178
  1409 00005D68 A10AB12AB100440AB2-
  1409 00005D71 2AB2               
  1410 00005D73 0AB32AB3FCA40AB52A-          DB 10,179,42,179,252,164,10,181,42,181,253,166,15,182,47,182,8,83,1,0
  1410 00005D7C B5FDA60FB62FB60853-
  1410 00005D85 0100               
  1411 00005D87 14A733B701001DA701-          DB 20,167,51,183,1,0,29,167,1,0,20,167,1,0,252,167,50,183,1,0
  1411 00005D90 0014A70100FCA732B7-
  1411 00005D99 0100               
  1412 00005D9B E7A70100484B28A013-          DB 231,167,1,0,72,75,40,160,19,176,51,176,13,67,208,161,10,177,42,177
  1412 00005DA4 B033B00D43D0A10AB1-
  1412 00005DAD 2AB1               
  1413 00005DAF 0D440AB32AB34C4B28-          DB 13,68,10,179,42,179,76,75,40,166,19,182,51,182,23,83,1,0,222,167
  1413 00005DB8 A613B633B617530100-
  1413 00005DC1 DEA7               
  1414 00005DC3 0100E7A70100FCA701-          DB 1,0,231,167,1,0,252,167,1,0,20,167,51,183,1,0,29,167,1,0
  1414 00005DCC 0014A733B701001DA7-
  1414 00005DD5 0100               
  1415 00005DD7 FDA00FB02FB00343A7-          DB 253,160,15,176,47,176,3,67,167,161,10,177,42,177,0,68,10,179,42,179
  1415 00005DE0 A10AB12AB100440AB3-
  1415 00005DE9 2AB3               
  1416 00005DEB FDA60FB62FB6085301-          DB 253,166,15,182,47,182,8,83,1,0,20,167,1,0,252,167,50,183,1,0
  1416 00005DF4 0014A70100FCA732B7-
  1416 00005DFD 0100               
  1417 00005DFF E7A70100DEA70100E7-          DB 231,167,1,0,222,167,1,0,231,167,1,0,15,176,47,176,13,67,10,177
  1417 00005E08 A701000FB02FB00D43-
  1417 00005E11 0AB1               
  1418 00005E13 2AB10D440AB32AB30F-          DB 42,177,13,68,10,179,42,179,15,182,47,182,23,83,252,167,6,0,64,75
  1418 00005E1C B62FB61753FCA70600-
  1418 00005E25 404B               
  1419 00005E27 FCA012B032B00343A8-          DB 252,160,18,176,50,176,3,67,168,161,14,177,46,177,0,68,10,178,42,178
  1419 00005E30 A10EB12EB100440AB2-
  1419 00005E39 2AB2               
  1420 00005E3B 0AB32AB30AB52AB5FC-          DB 10,179,42,179,10,181,42,181,252,166,18,182,50,182,8,83,6,0,72,75
  1420 00005E44 A612B632B608530600-
  1420 00005E4D 484B               
  1421 00005E4F FDA00FB02FB00D43A7-          DB 253,160,15,176,47,176,13,67,167,161,10,177,42,177,13,68,10,179,42,179
  1421 00005E58 A10AB12AB10D440AB3-
  1421 00005E61 2AB3               
  1422 00005E63 4C4BFDA60FB62FB617-          DB 76,75,253,166,15,182,47,182,23,83,6,0,15,176,47,176,3,67,10,177
  1422 00005E6C 5306000FB02FB00343-
  1422 00005E75 0AB1               
  1423 00005E77 2AB100440AB32AB30F-          DB 42,177,0,68,10,179,42,179,15,182,47,182,8,83,6,0,252,160,18,176
  1423 00005E80 B62FB608530600FCA0-
  1423 00005E89 12B0               
  1424 00005E8B 32B00D43A8A10EB12E-          DB 50,176,13,67,168,161,14,177,46,177,13,68,10,179,42,179,252,166,18,182
  1424 00005E94 B10D440AB32AB3FCA6-
  1424 00005E9D 12B6               
  1425 00005E9F 32B617530600404B28-          DB 50,182,23,83,6,0,64,75,40,160,19,176,51,176,3,67,167,161,10,177
  1425 00005EA8 A013B033B00343A7A1-
  1425 00005EB1 0AB1               
  1426 00005EB3 2AB100440AB22AB20A-          DB 42,177,0,68,10,178,42,178,10,179,42,179,10,181,42,181,40,166,19,182
  1426 00005EBC B32AB30AB52AB528A6-
  1426 00005EC5 13B6               
  1427 00005EC7 33B608530600484BFD-          DB 51,182,8,83,6,0,72,75,253,160,15,176,47,176,13,67,10,177,42,177
  1427 00005ED0 A00FB02FB00D430AB1-
  1427 00005ED9 2AB1               
  1428 00005EDB 0D440AB32AB34C4BFD-          DB 13,68,10,179,42,179,76,75,253,166,15,182,47,182,23,83,6,0,15,176
  1428 00005EE4 A60FB62FB617530600-
  1428 00005EED 0FB0               
  1429 00005EEF 2FB00343A8A10EB12E-          DB 47,176,3,67,168,161,14,177,46,177,0,68,10,179,42,179,15,182,47,182
  1429 00005EF8 B100440AB32AB30FB6-
  1429 00005F01 2FB6               
  1430 00005F03 0853060028A013B033-          DB 8,83,6,0,40,160,19,176,51,176,13,67,167,161,10,177,42,177,13,68
  1430 00005F0C B00D43A7A10AB12AB1-
  1430 00005F15 0D44               
  1431 00005F17 0AB32AB328A613B633-          DB 10,179,42,179,40,166,19,182,51,182,23,83,6,0,64,75,168,160,18,176
  1431 00005F20 B617530600404BA8A0-
  1431 00005F29 12B0               
  1432 00005F2B 32B003430AB12AB100-          DB 50,176,3,67,10,177,42,177,0,68,10,178,42,178,10,179,42,179,10,181
  1432 00005F34 440AB22AB20AB32AB3-
  1432 00005F3D 0AB5               
  1433 00005F3F 2AB5A8A612B632B608-          DB 42,181,168,166,18,182,50,182,8,83,6,0,72,75,253,160,15,176,47,176
  1433 00005F48 530600484BFDA00FB0-
  1433 00005F51 2FB0               
  1434 00005F53 0D43A8A10EB12EB10D-          DB 13,67,168,161,14,177,46,177,13,68,10,179,42,179,76,75,253,166,15,182
  1434 00005F5C 440AB32AB34C4BFDA6-
  1434 00005F65 0FB6               
  1435 00005F67 2FB617530600FCA012-          DB 47,182,23,83,6,0,252,160,18,176,50,176,3,67,167,161,10,177,42,177
  1435 00005F70 B032B00343A7A10AB1-
  1435 00005F79 2AB1               
  1436 00005F7B 00440AB32AB3FCA612-          DB 0,68,10,179,42,179,252,166,18,182,50,182,8,83,6,0,168,160,18,176
  1436 00005F84 B632B608530600A8A0-
  1436 00005F8D 12B0               
  1437 00005F8F 32B00D430AB12AB10D-          DB 50,176,13,67,10,177,42,177,13,68,10,179,42,179,168,166,18,182,50,182
  1437 00005F98 440AB32AB3A8A612B6-
  1437 00005FA1 32B6               
  1438 00005FA3 17530600404BFDA00F-          DB 23,83,6,0,64,75,253,160,15,176,47,176,3,67,168,161,14,177,46,177
  1438 00005FAC B02FB00343A8A10EB1-
  1438 00005FB5 2EB1               
  1439 00005FB7 00440AB22AB20AB32A-          DB 0,68,10,178,42,178,10,179,42,179,10,181,42,181,253,166,15,182,47,182
  1439 00005FC0 B30AB52AB5FDA60FB6-
  1439 00005FC9 2FB6               
  1440 00005FCB 08530600484BFCA012-          DB 8,83,6,0,72,75,252,160,18,176,50,176,13,67,167,161,10,177,42,177
  1440 00005FD4 B032B00D43A7A10AB1-
  1440 00005FDD 2AB1               
  1441 00005FDF 0D440AB32AB34C4BFC-          DB 13,68,10,179,42,179,76,75,252,166,18,182,50,182,23,83,6,0,253,160
  1441 00005FE8 A612B632B617530600-
  1441 00005FF1 FDA0               
  1442 00005FF3 0FB02FB003430AB12A-          DB 15,176,47,176,3,67,10,177,42,177,0,68,10,179,42,179,253,166,15,182
  1442 00005FFC B100440AB32AB3FDA6-
  1442 00006005 0FB6               
  1443 00006007 2FB6085306000FB02F-          DB 47,182,8,83,6,0,15,176,47,176,13,67,168,161,14,177,46,177,13,68
  1443 00006010 B00D43A8A10EB12EB1-
  1443 00006019 0D44               
  1444 0000601B 0AB32AB30FB62FB617-          DB 10,179,42,179,15,182,47,182,23,83,6,0,64,75,94,160,18,176,50,176
  1444 00006024 530600404B5EA012B0-
  1444 0000602D 32B0               
  1445 0000602F 0343A7A10AB12AB100-          DB 3,67,167,161,10,177,42,177,0,68,10,178,42,178,10,179,42,179,10,181
  1445 00006038 440AB22AB20AB32AB3-
  1445 00006041 0AB5               
  1446 00006043 2AB55EA612B632B608-          DB 42,181,94,166,18,182,50,182,8,83,6,0,72,75,253,160,15,176,47,176
  1446 0000604C 530600484BFDA00FB0-
  1446 00006055 2FB0               
  1447 00006057 0D430AB12AB10D440A-          DB 13,67,10,177,42,177,13,68,10,179,42,179,76,75,253,166,15,182,47,182
  1447 00006060 B32AB34C4BFDA60FB6-
  1447 00006069 2FB6               
  1448 0000606B 175306000FB02FB003-          DB 23,83,6,0,15,176,47,176,3,67,168,161,14,177,46,177,0,68,10,179
  1448 00006074 43A8A10EB12EB10044-
  1448 0000607D 0AB3               
  1449 0000607F 2AB30FB62FB6085306-          DB 42,179,15,182,47,182,8,83,6,0,94,160,18,176,50,176,13,67,167,161
  1449 00006088 005EA012B032B00D43-
  1449 00006091 A7A1               
  1450 00006093 0AB12AB10D440AB32A-          DB 10,177,42,177,13,68,10,179,42,179,94,166,18,182,50,182,23,83,6,0
  1450 0000609C B35EA612B632B61753-
  1450 000060A5 0600               
  1451 000060A7 404BA8A012B032B003-          DB 64,75,168,160,18,176,50,176,3,67,208,161,10,177,42,177,0,68,10,178
  1451 000060B0 43D0A10AB12AB10044-
  1451 000060B9 0AB2               
  1452 000060BB 2AB20AB32AB30AB52A-          DB 42,178,10,179,42,179,10,181,42,181,168,166,18,182,50,182,8,83,7,0
  1452 000060C4 B5A8A612B632B60853-
  1452 000060CD 0700               
  1453 000060CF 484BFDA00FB02FB00D-          DB 72,75,253,160,15,176,47,176,13,67,168,161,14,177,46,177,13,68,10,179
  1453 000060D8 43A8A10EB12EB10D44-
  1453 000060E1 0AB3               
  1454 000060E3 2AB34C4BFDA60FB62F-          DB 42,179,76,75,253,166,15,182,47,182,23,83,7,0,15,176,47,176,3,67
  1454 000060EC B6175307000FB02FB0-
  1454 000060F5 0343               
  1455 000060F7 D0A10AB12AB100440A-          DB 208,161,10,177,42,177,0,68,10,179,42,179,15,182,47,182,8,83,7,0
  1455 00006100 B32AB30FB62FB60853-
  1455 00006109 0700               
  1456 0000610B A8A012B032B00D430A-          DB 168,160,18,176,50,176,13,67,10,177,42,177,13,68,10,179,42,179,168,166
  1456 00006114 B12AB10D440AB32AB3-
  1456 0000611D A8A6               
  1457 0000611F 12B632B61753070040-          DB 18,182,50,182,23,83,7,0,64,75,61,160,18,176,50,176,3,67,14,177
  1457 00006128 4B3DA012B032B00343-
  1457 00006131 0EB1               
  1458 00006133 2EB100440AB22AB20A-          DB 46,177,0,68,10,178,42,178,10,179,42,179,10,181,42,181,61,166,18,182
  1458 0000613C B32AB30AB52AB53DA6-
  1458 00006145 12B6               
  1459 00006147 32B608530800484BFD-          DB 50,182,8,83,8,0,72,75,253,160,15,176,47,176,13,67,10,177,42,177
  1459 00006150 A00FB02FB00D430AB1-
  1459 00006159 2AB1               
  1460 0000615B 0D440AB22AB20AB32A-          DB 13,68,10,178,42,178,10,179,42,179,76,75,10,181,42,181,253,166,15,182
  1460 00006164 B34C4B0AB52AB5FDA6-
  1460 0000616D 0FB6               
  1461 0000616F 2FB6175308005EA012-          DB 47,182,23,83,8,0,94,160,18,176,50,176,3,67,10,177,42,177,0,68
  1461 00006178 B032B003430AB12AB1-
  1461 00006181 0044               
  1462 00006183 0AB22AB20AB32AB30A-          DB 10,178,42,178,10,179,42,179,10,181,42,181,94,166,18,182,50,182,8,83
  1462 0000618C B52AB55EA612B632B6-
  1462 00006195 0853               
  1463 00006197 08003DA012B032B00D-          DB 8,0,61,160,18,176,50,176,13,67,14,177,46,177,13,68,10,178,42,178
  1463 000061A0 430EB12EB10D440AB2-
  1463 000061A9 2AB2               
  1464 000061AB 0AB32AB30AB52AB53D-          DB 10,179,42,179,10,181,42,181,61,166,18,182,50,182,23,83,8,0,64,75
  1464 000061B4 A612B632B617530800-
  1464 000061BD 404B               
  1465 000061BF FDA00FB02FB00343FD-          DB 253,160,15,176,47,176,3,67,253,161,7,177,39,177,0,68,10,178,42,178
  1465 000061C8 A107B127B100440AB2-
  1465 000061D1 2AB2               
  1466 000061D3 0AB32AB38DA40FB42F-          DB 10,179,42,179,141,164,15,180,47,180,4,76,10,181,42,181,253,166,15,182
  1466 000061DC B4044C0AB52AB5FDA6-
  1466 000061E5 0FB6               
  1467 000061E7 2FB608538DA70FB72F-          DB 47,182,8,83,141,167,15,183,47,183,63,84,253,168,15,184,47,184,8,85
  1467 000061F0 B73F54FDA80FB82FB8-
  1467 000061F9 0855               
  1468 000061FB 01005EA832B80100FC-          DB 1,0,94,168,50,184,1,0,252,168,1,0,253,168,47,184,1,0,94,168
  1468 00006204 A80100FDA82FB80100-
  1468 0000620D 5EA8               
  1469 0000620F 32B80100FCA8010048-          DB 50,184,1,0,252,168,1,0,72,75,40,160,19,176,51,176,13,67,28,161
  1469 00006218 4B28A013B033B00D43-
  1469 00006221 1CA1               
  1470 00006223 0AB12AB10D440AB32A-          DB 10,177,42,177,13,68,10,179,42,179,76,75,40,166,19,182,51,182,23,83
  1470 0000622C B34C4B28A613B633B6-
  1470 00006235 1753               
  1471 00006237 FDA82FB80100BDA401-          DB 253,168,47,184,1,0,189,164,1,0,241,164,1,0,253,164,3,0,253,160
  1471 00006240 00F1A40100FDA40300-
  1471 00006249 FDA0               
  1472 0000624B 0FB02FB00343FDA107-          DB 15,176,47,176,3,67,253,161,7,177,39,177,0,68,10,179,42,179,253,166
  1472 00006254 B127B100440AB32AB3-
  1472 0000625D FDA6               
  1473 0000625F 0FB62FB6085301005E-          DB 15,182,47,182,8,83,1,0,94,168,50,184,1,0,252,168,1,0,253,168
  1473 00006268 A832B80100FCA80100-
  1473 00006271 FDA8               
  1474 00006273 2FB801005EA832B801-          DB 47,184,1,0,94,168,50,184,1,0,252,168,1,0,15,176,47,176,13,67
  1474 0000627C 00FCA801000FB02FB0-
  1474 00006285 0D43               
  1475 00006287 07B127B10D440AB32A-          DB 7,177,39,177,13,68,10,179,42,179,15,182,47,182,23,83,15,183,47,183
  1475 00006290 B30FB62FB617530FB7-
  1475 00006299 2FB7               
  1476 0000629B 0A54FDA82FB8060040-          DB 10,84,253,168,47,184,6,0,64,75,252,160,18,176,50,176,3,67,11,177
  1476 000062A4 4BFCA012B032B00343-
  1476 000062AD 0BB1               
  1477 000062AF 2BB100440AB22AB20A-          DB 43,177,0,68,10,178,42,178,10,179,42,179,10,181,42,181,252,166,18,182
  1477 000062B8 B32AB30AB52AB5FCA6-
  1477 000062C1 12B6               
  1478 000062C3 32B608530200F1A7FC-          DB 50,182,8,83,2,0,241,167,252,168,50,184,1,0,253,167,253,168,47,184
  1478 000062CC A832B80100FDA7FDA8-
  1478 000062D5 2FB8               
  1479 000062D7 0200FCA832B8020048-          DB 2,0,252,168,50,184,2,0,72,75,253,160,15,176,47,176,13,67,7,177
  1479 000062E0 4BFDA00FB02FB00D43-
  1479 000062E9 07B1               
  1480 000062EB 27B10D440AB32AB34C-          DB 39,177,13,68,10,179,42,179,76,75,253,166,15,182,47,182,23,83,253,168
  1480 000062F4 4BFDA60FB62FB61753-
  1480 000062FD FDA8               
  1481 000062FF 2FB806000FB02FB003-          DB 47,184,6,0,15,176,47,176,3,67,7,177,39,177,0,68,10,179,42,179
  1481 00006308 4307B127B100440AB3-
  1481 00006311 2AB3               
  1482 00006313 0FB62FB608535EA832-          DB 15,182,47,182,8,83,94,168,50,184,2,0,252,168,1,0,253,168,47,184
  1482 0000631C B80200FCA80100FDA8-
  1482 00006325 2FB8               
  1483 00006327 01005EA832B80100FC-          DB 1,0,94,168,50,184,1,0,252,168,1,0,252,160,18,176,50,176,13,67
  1483 00006330 A80100FCA012B032B0-
  1483 00006339 0D43               
  1484 0000633B 0BB12BB10D440AB32A-          DB 11,177,43,177,13,68,10,179,42,179,252,166,18,182,50,182,23,83,253,168
  1484 00006344 B3FCA612B632B61753-
  1484 0000634D FDA8               
  1485 0000634F 2FB80200F3A40100F0-          DB 47,184,2,0,243,164,1,0,240,164,1,0,243,164,1,0,253,164,1,0
  1485 00006358 A40100F3A40100FDA4-
  1485 00006361 0100               
  1486 00006363 404B28A013B033B003-          DB 64,75,40,160,19,176,51,176,3,67,7,177,39,177,0,68,10,178,42,178
  1486 0000636C 4307B127B100440AB2-
  1486 00006375 2AB2               
  1487 00006377 0AB32AB30AB52AB528-          DB 10,179,42,179,10,181,42,181,40,166,19,182,51,182,8,83,1,0,4,164
  1487 00006380 A613B633B608530100-
  1487 00006389 04A4               
  1488 0000638B 32B45EA832B8010005-          DB 50,180,94,168,50,184,1,0,5,164,252,168,1,0,4,164,253,168,47,184
  1488 00006394 A4FCA8010004A4FDA8-
  1488 0000639D 2FB8               
  1489 0000639F 0100FDA42FB45EA832-          DB 1,0,253,164,47,180,94,168,50,184,1,0,243,164,252,168,1,0,72,75
  1489 000063A8 B80100F3A4FCA80100-
  1489 000063B1 484B               
  1490 000063B3 FDA00FB02FB00D4307-          DB 253,160,15,176,47,176,13,67,7,177,39,177,13,68,10,179,42,179,76,75
  1490 000063BC B127B10D440AB32AB3-
  1490 000063C5 4C4B               
  1491 000063C7 FDA60FB62FB61753FD-          DB 253,166,15,182,47,182,23,83,253,168,47,184,1,0,240,164,1,0,243,164
  1491 000063D0 A82FB80100F0A40100-
  1491 000063D9 F3A4               
  1492 000063DB 0100FDA4010004A432-          DB 1,0,253,164,1,0,4,164,50,180,1,0,5,164,1,0,15,176,47,176
  1492 000063E4 B4010005A401000FB0-
  1492 000063ED 2FB0               
  1493 000063EF 03430BB12BB100440A-          DB 3,67,11,177,43,177,0,68,10,179,42,179,252,164,18,180,50,180,15,182
  1493 000063F8 B32AB3FCA412B432B4-
  1493 00006401 0FB6               
  1494 00006403 2FB6085301005EA832-          DB 47,182,8,83,1,0,94,168,50,184,1,0,243,167,252,168,1,0,240,167
  1494 0000640C B80100F3A7FCA80100-
  1494 00006415 F0A7               
  1495 00006417 FDA82FB80100F3A75E-          DB 253,168,47,184,1,0,243,167,94,168,50,184,1,0,253,167,252,168,1,0
  1495 00006420 A832B80100FDA7FCA8-
  1495 00006429 0100               
  1496 0000642B 28A013B033B00D4307-          DB 40,160,19,176,51,176,13,67,7,177,39,177,13,68,10,179,42,179,40,166
  1496 00006434 B127B10D440AB32AB3-
  1496 0000643D 28A6               
  1497 0000643F 13B633B61753FDA82F-          DB 19,182,51,182,23,83,253,168,47,184,1,0,4,167,50,183,1,0,5,167
  1497 00006448 B8010004A732B70100-
  1497 00006451 05A7               
  1498 00006453 010004A70100FDA72F-          DB 1,0,4,167,1,0,253,167,47,183,1,0,243,167,1,0,64,75,168,160
  1498 0000645C B70100F3A70100404B-
  1498 00006465 A8A0               
  1499 00006467 12B032B0034307B127-          DB 18,176,50,176,3,67,7,177,39,177,0,68,10,178,42,178,10,179,42,179
  1499 00006470 B100440AB22AB20AB3-
  1499 00006479 2AB3               
  1500 0000647B 0AB52AB5A8A612B632-          DB 10,181,42,181,168,166,18,182,50,182,8,83,1,0,240,167,94,168,50,184
  1500 00006484 B608530100F0A75EA8-
  1500 0000648D 32B8               
  1501 0000648F 0100F3A7FCA80100FD-          DB 1,0,243,167,252,168,1,0,253,167,253,168,47,184,1,0,4,167,50,183
  1501 00006498 A7FDA82FB8010004A7-
  1501 000064A1 32B7               
  1502 000064A3 5EA832B8010005A7FC-          DB 94,168,50,184,1,0,5,167,252,168,1,0,72,75,253,160,15,176,47,176
  1502 000064AC A80100484BFDA00FB0-
  1502 000064B5 2FB0               
  1503 000064B7 0D430BB12BB10D440A-          DB 13,67,11,177,43,177,13,68,10,179,42,179,76,75,253,166,15,182,47,182
  1503 000064C0 B32AB34C4BFDA60FB6-
  1503 000064C9 2FB6               
  1504 000064CB 1753FCA712B732B7FD-          DB 23,83,252,167,18,183,50,183,253,168,47,184,6,0,252,160,18,176,50,176
  1504 000064D4 A82FB80600FCA012B0-
  1504 000064DD 32B0               
  1505 000064DF 034307B127B100440A-          DB 3,67,7,177,39,177,0,68,10,179,42,179,94,164,18,180,50,180,252,166
  1505 000064E8 B32AB35EA412B432B4-
  1505 000064F1 FCA6               
  1506 000064F3 12B632B6085301005E-          DB 18,182,50,182,8,83,1,0,94,168,50,184,1,0,208,168,1,0,253,168
  1506 000064FC A832B80100D0A80100-
  1506 00006505 FDA8               
  1507 00006507 2FB801005EA832B801-          DB 47,184,1,0,94,168,50,184,1,0,208,168,1,0,168,160,18,176,50,176
  1507 00006510 00D0A80100A8A012B0-
  1507 00006519 32B0               
  1508 0000651B 0D4307B127B10D440A-          DB 13,67,7,177,39,177,13,68,10,179,42,179,168,166,18,182,50,182,23,83
  1508 00006524 B32AB3A8A612B632B6-
  1508 0000652D 1753               
  1509 0000652F FDA82FB80600404BFD-          DB 253,168,47,184,6,0,64,75,253,160,15,176,47,176,3,67,11,177,43,177
  1509 00006538 A00FB02FB003430BB1-
  1509 00006541 2BB1               
  1510 00006543 00440AB22AB20AB32A-          DB 0,68,10,178,42,178,10,179,42,179,10,181,42,181,253,166,15,182,47,182
  1510 0000654C B30AB52AB5FDA60FB6-
  1510 00006555 2FB6               
  1511 00006557 08530FB82FB801005E-          DB 8,83,15,184,47,184,1,0,94,168,50,184,1,0,252,168,1,0,253,168
  1511 00006560 A832B80100FCA80100-
  1511 00006569 FDA8               
  1512 0000656B 2FB801005EA832B801-          DB 47,184,1,0,94,168,50,184,1,0,252,168,1,0,72,75,252,160,18,176
  1512 00006574 00FCA80100484BFCA0-
  1512 0000657D 12B0               
  1513 0000657F 32B00D4307B127B10D-          DB 50,176,13,67,7,177,39,177,13,68,10,179,42,179,76,75,252,166,18,182
  1513 00006588 440AB32AB34C4BFCA6-
  1513 00006591 12B6               
  1514 00006593 32B617535EA712B732-          DB 50,182,23,83,94,167,18,183,50,183,253,168,47,184,6,0,253,160,15,176
  1514 0000659C B7FDA82FB80600FDA0-
  1514 000065A5 0FB0               
  1515 000065A7 2FB0034307B127B100-          DB 47,176,3,67,7,177,39,177,0,68,10,179,42,179,253,166,15,182,47,182
  1515 000065B0 440AB32AB3FDA60FB6-
  1515 000065B9 2FB6               
  1516 000065BB 0853010065A45EA832-          DB 8,83,1,0,101,164,94,168,50,184,1,0,94,164,252,168,1,0,87,164
  1516 000065C4 B801005EA4FCA80100-
  1516 000065CD 57A4               
  1517 000065CF FDA82FB8010055A45E-          DB 253,168,47,184,1,0,85,164,94,168,50,184,1,0,87,164,252,168,1,0
  1517 000065D8 A832B8010057A4FCA8-
  1517 000065E1 0100               
  1518 000065E3 0FB02FB00D430BB12B-          DB 15,176,47,176,13,67,11,177,43,177,13,68,10,179,42,179,15,182,47,182
  1518 000065EC B10D440AB32AB30FB6-
  1518 000065F5 2FB6               
  1519 000065F7 1753FDA82FB801005E-          DB 23,83,253,168,47,184,1,0,94,164,1,0,101,164,1,0,104,164,1,0
  1519 00006600 A4010065A4010068A4-
  1519 00006609 0100               
  1520 0000660B 65A401005EA4010040-          DB 101,164,1,0,94,164,1,0,64,75,94,160,18,176,50,176,3,67,7,177
  1520 00006614 4B5EA012B032B00343-
  1520 0000661D 07B1               
  1521 0000661F 27B100440AB22AB20A-          DB 39,177,0,68,10,178,42,178,10,179,42,179,10,181,42,181,94,166,18,182
  1521 00006628 B32AB30AB52AB55EA6-
  1521 00006631 12B6               
  1522 00006633 32B60853010057A45E-          DB 50,182,8,83,1,0,87,164,94,168,50,184,1,0,85,164,252,168,1,0
  1522 0000663C A832B8010055A4FCA8-
  1522 00006645 0100               
  1523 00006647 57A4FDA82FB801005E-          DB 87,164,253,168,47,184,1,0,94,164,94,168,50,184,1,0,101,164,252,168
  1523 00006650 A45EA832B8010065A4-
  1523 00006659 FCA8               
  1524 0000665B 0100484BFDA00FB02F-          DB 1,0,72,75,253,160,15,176,47,176,13,67,7,177,39,177,13,68,10,179
  1524 00006664 B00D4307B127B10D44-
  1524 0000666D 0AB3               
  1525 0000666F 2AB34C4BFDA60FB62F-          DB 42,179,76,75,253,166,15,182,47,182,23,83,253,168,47,184,1,0,104,164
  1525 00006678 B61753FDA82FB80100-
  1525 00006681 68A4               
  1526 00006683 65A7010065A45EA701-          DB 101,167,1,0,101,164,94,167,1,0,94,164,87,167,1,0,87,164,85,167
  1526 0000668C 005EA457A7010057A4-
  1526 00006695 55A7               
  1527 00006697 010055A457A701000F-          DB 1,0,85,164,87,167,1,0,15,176,47,176,3,67,11,177,43,177,0,68
  1527 000066A0 B02FB003430BB12BB1-
  1527 000066A9 0044               
  1528 000066AB 0AB32AB38DA40FB42F-          DB 10,179,42,179,141,164,15,180,47,180,15,182,47,182,8,83,1,0,94,167
  1528 000066B4 B40FB62FB608530100-
  1528 000066BD 5EA7               
  1529 000066BF 5EA832B8010065A7FC-          DB 94,168,50,184,1,0,101,167,252,168,1,0,104,167,253,168,47,184,1,0
  1529 000066C8 A8010068A7FDA82FB8-
  1529 000066D1 0100               
  1530 000066D3 65A75EA832B801005E-          DB 101,167,94,168,50,184,1,0,94,167,252,168,1,0,94,160,18,176,50,176
  1530 000066DC A7FCA801005EA012B0-
  1530 000066E5 32B0               
  1531 000066E7 0D4307B127B10D440A-          DB 13,67,7,177,39,177,13,68,10,179,42,179,94,166,18,182,50,182,23,83
  1531 000066F0 B32AB35EA612B632B6-
  1531 000066F9 1753               
  1532 000066FB FDA82FB8010057A701-          DB 253,168,47,184,1,0,87,167,1,0,85,167,1,0,87,167,1,0,94,167
  1532 00006704 0055A7010057A70100-
  1532 0000670D 5EA7               
  1533 0000670F 010065A70100404BA8-          DB 1,0,101,167,1,0,64,75,168,160,18,176,50,176,3,67,28,161,10,177
  1533 00006718 A012B032B003431CA1-
  1533 00006721 0AB1               
  1534 00006723 2AB100440AB22AB20A-          DB 42,177,0,68,10,178,42,178,10,179,42,179,10,181,42,181,168,166,18,182
  1534 0000672C B32AB30AB52AB5A8A6-
  1534 00006735 12B6               
  1535 00006737 32B60853010068A75E-          DB 50,182,8,83,1,0,104,167,94,168,50,184,1,0,101,167,252,168,1,0
  1535 00006740 A832B8010065A7FCA8-
  1535 00006749 0100               
  1536 0000674B 5EA7FDA82FB8010057-          DB 94,167,253,168,47,184,1,0,87,167,94,168,50,184,1,0,85,167,252,168
  1536 00006754 A75EA832B8010055A7-
  1536 0000675D FCA8               
  1537 0000675F 0100484BFDA00FB02F-          DB 1,0,72,75,253,160,15,176,47,176,13,67,253,161,11,177,43,177,13,68
  1537 00006768 B00D43FDA10BB12BB1-
  1537 00006771 0D44               
  1538 00006773 0AB32AB34C4BFDA60F-          DB 10,179,42,179,76,75,253,166,15,182,47,182,23,83,141,167,15,183,47,183
  1538 0000677C B62FB617538DA70FB7-
  1538 00006785 2FB7               
  1539 00006787 FDA82FB806000FB02F-          DB 253,168,47,184,6,0,15,176,47,176,3,67,28,161,10,177,42,177,0,68
  1539 00006790 B003431CA10AB12AB1-
  1539 00006799 0044               
  1540 0000679B 0AB32AB30FB62FB608-          DB 10,179,42,179,15,182,47,182,8,83,1,0,94,168,50,184,1,0,252,168
  1540 000067A4 5301005EA832B80100-
  1540 000067AD FCA8               
  1541 000067AF 0100FDA82FB801005E-          DB 1,0,253,168,47,184,1,0,94,168,50,184,1,0,252,168,1,0,168,160
  1541 000067B8 A832B80100FCA80100-
  1541 000067C1 A8A0               
  1542 000067C3 12B032B00D430AB12A-          DB 18,176,50,176,13,67,10,177,42,177,13,68,10,179,42,179,168,166,18,182
  1542 000067CC B10D440AB32AB3A8A6-
  1542 000067D5 12B6               
  1543 000067D7 32B61753FDA82FB806-          DB 50,182,23,83,253,168,47,184,6,0,64,75,61,160,18,176,50,176,3,67
  1543 000067E0 00404B3DA012B032B0-
  1543 000067E9 0343               
  1544 000067EB 0EB12EB100440AB22A-          DB 14,177,46,177,0,68,10,178,42,178,10,179,42,179,251,164,14,180,46,180
  1544 000067F4 B20AB32AB3FBA40EB4-
  1544 000067FD 2EB4               
  1545 000067FF 0AB52AB53DA612B632-          DB 10,181,42,181,61,166,18,182,50,182,8,83,1,0,94,168,50,184,1,0
  1545 00006808 B6085301005EA832B8-
  1545 00006811 0100               
  1546 00006813 FCA80100FDA82FB801-          DB 252,168,1,0,253,168,47,184,1,0,94,168,50,184,1,0,252,168,1,0
  1546 0000681C 005EA832B80100FCA8-
  1546 00006825 0100               
  1547 00006827 484BFDA00FB02FB00D-          DB 72,75,253,160,15,176,47,176,13,67,10,177,42,177,13,68,10,179,42,179
  1547 00006830 430AB12AB10D440AB3-
  1547 00006839 2AB3               
  1548 0000683B 4C4BFDA60FB62FB617-          DB 76,75,253,166,15,182,47,182,23,83,253,168,47,184,6,0,94,160,18,176
  1548 00006844 53FDA82FB806005EA0-
  1548 0000684D 12B0               
  1549 0000684F 32B003430AB12AB100-          DB 50,176,3,67,10,177,42,177,0,68,10,178,42,178,10,179,42,179,10,181
  1549 00006858 440AB22AB20AB32AB3-
  1549 00006861 0AB5               
  1550 00006863 2AB55EA612B632B608-          DB 42,181,94,166,18,182,50,182,8,83,1,0,94,168,50,184,1,0,252,168
  1550 0000686C 5301005EA832B80100-
  1550 00006875 FCA8               
  1551 00006877 0100FDA82FB801005E-          DB 1,0,253,168,47,184,1,0,94,168,50,184,1,0,252,168,1,0,61,160
  1551 00006880 A832B80100FCA80100-
  1551 00006889 3DA0               
  1552 0000688B 12B032B00D430EB12E-          DB 18,176,50,176,13,67,14,177,46,177,13,68,10,179,42,179,61,166,18,182
  1552 00006894 B10D440AB32AB33DA6-
  1552 0000689D 12B6               
  1553 0000689F 32B61753FBA70EB72E-          DB 50,182,23,83,251,167,14,183,46,183,253,168,47,184,6,0,64,75,253,160
  1553 000068A8 B7FDA82FB80600404B-
  1553 000068B1 FDA0               
  1554 000068B3 0FB02FB00343A7A10A-          DB 15,176,47,176,3,67,167,161,10,177,42,177,0,68,10,178,42,178,10,179
  1554 000068BC B12AB100440AB22AB2-
  1554 000068C5 0AB3               
  1555 000068C7 2AB35EA412B432B40A-          DB 42,179,94,164,18,180,50,180,10,181,42,181,253,166,15,182,47,182,8,83
  1555 000068D0 B52AB5FDA60FB62FB6-
  1555 000068D9 0853               
  1556 000068DB 0FB82FB801005EA832-          DB 15,184,47,184,1,0,94,168,50,184,1,0,40,168,51,184,1,0,253,168
  1556 000068E4 B8010028A833B80100-
  1556 000068ED FDA8               
  1557 000068EF 2FB801005EA832B801-          DB 47,184,1,0,94,168,50,184,1,0,40,168,51,184,1,0,72,75,40,160
  1557 000068F8 0028A833B80100484B-
  1557 00006901 28A0               
  1558 00006903 13B033B00D43D0A10A-          DB 19,176,51,176,13,67,208,161,10,177,42,177,13,68,10,179,42,179,76,75
  1558 0000690C B12AB10D440AB32AB3-
  1558 00006915 4C4B               
  1559 00006917 28A613B633B61753FD-          DB 40,166,19,182,51,182,23,83,253,168,47,184,1,0,115,164,1,0,137,164
  1559 00006920 A82FB8010073A40100-
  1559 00006929 89A4               
  1560 0000692B 0100A1A40100A8A402-          DB 1,0,161,164,1,0,168,164,2,0,253,160,15,176,47,176,3,67,167,161
  1560 00006934 00FDA00FB02FB00343-
  1560 0000693D A7A1               
  1561 0000693F 0AB12AB100440AB32A-          DB 10,177,42,177,0,68,10,179,42,179,253,166,15,182,47,182,8,83,1,0
  1561 00006948 B3FDA60FB62FB60853-
  1561 00006951 0100               
  1562 00006953 5EA832B8010028A833-          DB 94,168,50,184,1,0,40,168,51,184,1,0,253,168,47,184,1,0,94,168
  1562 0000695C B80100FDA82FB80100-
  1562 00006965 5EA8               
  1563 00006967 32B8010028A833B801-          DB 50,184,1,0,40,168,51,184,1,0,15,176,47,176,13,67,10,177,42,177
  1563 00006970 000FB02FB00D430AB1-
  1563 00006979 2AB1               
  1564 0000697B 0D440AB32AB30FB62F-          DB 13,68,10,179,42,179,15,182,47,182,23,83,94,167,18,183,50,183,253,168
  1564 00006984 B617535EA712B732B7-
  1564 0000698D FDA8               
  1565 0000698F 2FB80600404BFCA012-          DB 47,184,6,0,64,75,252,160,18,176,50,176,3,67,168,161,14,177,46,177
  1565 00006998 B032B00343A8A10EB1-
  1565 000069A1 2EB1               
  1566 000069A3 00440AB22AB20AB32A-          DB 0,68,10,178,42,178,10,179,42,179,10,181,42,181,252,166,18,182,50,182
  1566 000069AC B30AB52AB5FCA612B6-
  1566 000069B5 32B6               
  1567 000069B7 0853010073A75EA832-          DB 8,83,1,0,115,167,94,168,50,184,1,0,137,167,40,168,51,184,1,0
  1567 000069C0 B8010089A728A833B8-
  1567 000069C9 0100               
  1568 000069CB A1A7FDA82FB80100A8-          DB 161,167,253,168,47,184,1,0,168,167,94,168,50,184,1,0,40,168,51,184
  1568 000069D4 A75EA832B8010028A8-
  1568 000069DD 33B8               
  1569 000069DF 0100484BFDA00FB02F-          DB 1,0,72,75,253,160,15,176,47,176,13,67,167,161,10,177,42,177,13,68
  1569 000069E8 B00D43A7A10AB12AB1-
  1569 000069F1 0D44               
  1570 000069F3 0AB32AB34C4BFDA60F-          DB 10,179,42,179,76,75,253,166,15,182,47,182,23,83,253,168,47,184,6,0
  1570 000069FC B62FB61753FDA82FB8-
  1570 00006A05 0600               
  1571 00006A07 0FB02FB003430AB12A-          DB 15,176,47,176,3,67,10,177,42,177,0,68,10,179,42,179,15,182,47,182
  1571 00006A10 B100440AB32AB30FB6-
  1571 00006A19 2FB6               
  1572 00006A1B 085301005EA832B801-          DB 8,83,1,0,94,168,50,184,1,0,40,168,51,184,1,0,253,168,47,184
  1572 00006A24 0028A833B80100FDA8-
  1572 00006A2D 2FB8               
  1573 00006A2F 01005EA832B8010028-          DB 1,0,94,168,50,184,1,0,40,168,51,184,1,0,252,160,18,176,50,176
  1573 00006A38 A833B80100FCA012B0-
  1573 00006A41 32B0               
  1574 00006A43 0D43A8A10EB12EB10D-          DB 13,67,168,161,14,177,46,177,13,68,10,179,42,179,252,166,18,182,50,182
  1574 00006A4C 440AB32AB3FCA612B6-
  1574 00006A55 32B6               
  1575 00006A57 1753FDA82FB802009F-          DB 23,83,253,168,47,184,2,0,159,164,1,0,156,164,1,0,159,164,1,0
  1575 00006A60 A401009CA401009FA4-
  1575 00006A69 0100               
  1576 00006A6B A8A40100404B28A013-          DB 168,164,1,0,64,75,40,160,19,176,51,176,3,67,167,161,10,177,42,177
  1576 00006A74 B033B00343A7A10AB1-
  1576 00006A7D 2AB1               
  1577 00006A7F 00440AB22AB20AB32A-          DB 0,68,10,178,42,178,10,179,42,179,10,181,42,181,40,166,19,182,51,182
  1577 00006A88 B30AB52AB528A613B6-
  1577 00006A91 33B6               
  1578 00006A93 08530100B1A45EA832-          DB 8,83,1,0,177,164,94,168,50,184,1,0,181,164,40,168,51,184,1,0
  1578 00006A9C B80100B5A428A833B8-
  1578 00006AA5 0100               
  1579 00006AA7 B1A4FDA82FB80100A8-          DB 177,164,253,168,47,184,1,0,168,164,94,168,50,184,1,0,159,164,40,168
  1579 00006AB0 A45EA832B801009FA4-
  1579 00006AB9 28A8               
  1580 00006ABB 33B80100484BFDA00F-          DB 51,184,1,0,72,75,253,160,15,176,47,176,13,67,10,177,42,177,13,68
  1580 00006AC4 B02FB00D430AB12AB1-
  1580 00006ACD 0D44               
  1581 00006ACF 0AB32AB34C4BFDA60F-          DB 10,179,42,179,76,75,253,166,15,182,47,182,23,83,253,168,47,184,1,0
  1581 00006AD8 B62FB61753FDA82FB8-
  1581 00006AE1 0100               
  1582 00006AE3 9CA401009FA40100A8-          DB 156,164,1,0,159,164,1,0,168,164,1,0,177,164,1,0,181,164,1,0
  1582 00006AEC A40100B1A40100B5A4-
  1582 00006AF5 0100               
  1583 00006AF7 0FB02FB00343A8A10E-          DB 15,176,47,176,3,67,168,161,14,177,46,177,0,68,10,179,42,179,15,182
  1583 00006B00 B12EB100440AB32AB3-
  1583 00006B09 0FB6               
  1584 00006B0B 2FB608530100B1A45E-          DB 47,182,8,83,1,0,177,164,94,168,50,184,1,0,168,164,159,167,40,168
  1584 00006B14 A832B80100A8A49FA7-
  1584 00006B1D 28A8               
  1585 00006B1F 33B801009FA49CA7FD-          DB 51,184,1,0,159,164,156,167,253,168,47,184,1,0,156,164,159,167,94,168
  1585 00006B28 A82FB801009CA49FA7-
  1585 00006B31 5EA8               
  1586 00006B33 32B801009FA4A8A728-          DB 50,184,1,0,159,164,168,167,40,168,51,184,1,0,40,160,19,176,51,176
  1586 00006B3C A833B8010028A013B0-
  1586 00006B45 33B0               
  1587 00006B47 0D43A7A10AB12AB10D-          DB 13,67,167,161,10,177,42,177,13,68,10,179,42,179,40,166,19,182,51,182
  1587 00006B50 440AB32AB328A613B6-
  1587 00006B59 33B6               
  1588 00006B5B 1753FDA82FB80100A8-          DB 23,83,253,168,47,184,1,0,168,164,177,167,1,0,177,164,181,167,1,0
  1588 00006B64 A4B1A70100B1A4B5A7-
  1588 00006B6D 0100               
  1589 00006B6F B5A4B1A70100B1A4A8-          DB 181,164,177,167,1,0,177,164,168,167,1,0,168,164,159,167,1,0,64,75
  1589 00006B78 A70100A8A49FA70100-
  1589 00006B81 404B               
  1590 00006B83 A8A012B032B003430A-          DB 168,160,18,176,50,176,3,67,10,177,42,177,0,68,10,178,42,178,10,179
  1590 00006B8C B12AB100440AB22AB2-
  1590 00006B95 0AB3               
  1591 00006B97 2AB35EA412B432B40A-          DB 42,179,94,164,18,180,50,180,10,181,42,181,168,166,18,182,50,182,8,83
  1591 00006BA0 B52AB5A8A612B632B6-
  1591 00006BA9 0853               
  1592 00006BAB 01009CA75EA832B801-          DB 1,0,156,167,94,168,50,184,1,0,159,167,40,168,51,184,1,0,168,167
  1592 00006BB4 009FA728A833B80100-
  1592 00006BBD A8A7               
  1593 00006BBF FDA82FB80100B1A75E-          DB 253,168,47,184,1,0,177,167,94,168,50,184,1,0,181,167,40,168,51,184
  1593 00006BC8 A832B80100B5A728A8-
  1593 00006BD1 33B8               
  1594 00006BD3 0100484BFDA00FB02F-          DB 1,0,72,75,253,160,15,176,47,176,13,67,168,161,14,177,46,177,13,68
  1594 00006BDC B00D43A8A10EB12EB1-
  1594 00006BE5 0D44               
  1595 00006BE7 0AB32AB34C4BFDA60F-          DB 10,179,42,179,76,75,253,166,15,182,47,182,23,83,253,168,47,184,1,0
  1595 00006BF0 B62FB61753FDA82FB8-
  1595 00006BF9 0100               
  1596 00006BFB B1A70100A8A701009F-          DB 177,167,1,0,168,167,1,0,159,167,1,0,156,167,1,0,159,167,1,0
  1596 00006C04 A701009CA701009FA7-
  1596 00006C0D 0100               
  1597 00006C0F FCA012B032B00343A7-          DB 252,160,18,176,50,176,3,67,167,161,10,177,42,177,0,68,10,179,42,179
  1597 00006C18 A10AB12AB100440AB3-
  1597 00006C21 2AB3               
  1598 00006C23 A8A412B432B4FCA612-          DB 168,164,18,180,50,180,252,166,18,182,50,182,8,83,1,0,168,167,94,168
  1598 00006C2C B632B608530100A8A7-
  1598 00006C35 5EA8               
  1599 00006C37 32B80100B1A728A833-          DB 50,184,1,0,177,167,40,168,51,184,1,0,181,167,253,168,47,184,1,0
  1599 00006C40 B80100B5A7FDA82FB8-
  1599 00006C49 0100               
  1600 00006C4B B1A75EA832B80100A8-          DB 177,167,94,168,50,184,1,0,168,167,40,168,51,184,1,0,168,160,18,176
  1600 00006C54 A728A833B80100A8A0-
  1600 00006C5D 12B0               
  1601 00006C5F 32B00D430AB12AB10D-          DB 50,176,13,67,10,177,42,177,13,68,10,179,42,179,168,166,18,182,50,182
  1601 00006C68 440AB32AB3A8A612B6-
  1601 00006C71 32B6               
  1602 00006C73 17535EA712B732B7FD-          DB 23,83,94,167,18,183,50,183,253,168,47,184,6,0,64,75,253,160,15,176
  1602 00006C7C A82FB80600404BFDA0-
  1602 00006C85 0FB0               
  1603 00006C87 2FB00343A8A10EB12E-          DB 47,176,3,67,168,161,14,177,46,177,0,68,10,178,42,178,10,179,42,179
  1603 00006C90 B100440AB22AB20AB3-
  1603 00006C99 2AB3               
  1604 00006C9B 5EA412B432B40AB52A-          DB 94,164,18,180,50,180,10,181,42,181,253,166,15,182,47,182,8,83,15,184
  1604 00006CA4 B5FDA60FB62FB60853-
  1604 00006CAD 0FB8               
  1605 00006CAF 2FB801005EA832B801-          DB 47,184,1,0,94,168,50,184,1,0,252,168,1,0,253,168,47,184,1,0
  1605 00006CB8 00FCA80100FDA82FB8-
  1605 00006CC1 0100               
  1606 00006CC3 5EA832B80100FCA801-          DB 94,168,50,184,1,0,252,168,1,0,72,75,252,160,18,176,50,176,13,67
  1606 00006CCC 00484BFCA012B032B0-
  1606 00006CD5 0D43               
  1607 00006CD7 A7A10AB12AB10D440A-          DB 167,161,10,177,42,177,13,68,10,179,42,179,76,75,252,166,18,182,50,182
  1607 00006CE0 B32AB34C4BFCA612B6-
  1607 00006CE9 32B6               
  1608 00006CEB 1753A8A712B732B7FD-          DB 23,83,168,167,18,183,50,183,253,168,47,184,6,0,253,160,15,176,47,176
  1608 00006CF4 A82FB80600FDA00FB0-
  1608 00006CFD 2FB0               
  1609 00006CFF 03430AB12AB100440A-          DB 3,67,10,177,42,177,0,68,10,179,42,179,253,166,15,182,47,182,8,83
  1609 00006D08 B32AB3FDA60FB62FB6-
  1609 00006D11 0853               
  1610 00006D13 01005EA832B80100FC-          DB 1,0,94,168,50,184,1,0,252,168,1,0,253,168,47,184,1,0,94,168
  1610 00006D1C A80100FDA82FB80100-
  1610 00006D25 5EA8               
  1611 00006D27 32B80100FCA801000F-          DB 50,184,1,0,252,168,1,0,15,176,47,176,13,67,168,161,14,177,46,177
  1611 00006D30 B02FB00D43A8A10EB1-
  1611 00006D39 2EB1               
  1612 00006D3B 0D440AB32AB30FB62F-          DB 13,68,10,179,42,179,15,182,47,182,23,83,94,167,18,183,50,183,253,168
  1612 00006D44 B617535EA712B732B7-
  1612 00006D4D FDA8               
  1613 00006D4F 2FB80600404B5EA012-          DB 47,184,6,0,64,75,94,160,18,176,50,176,3,67,167,161,10,177,42,177
  1613 00006D58 B032B00343A7A10AB1-
  1613 00006D61 2AB1               
  1614 00006D63 00440AB22AB20AB32A-          DB 0,68,10,178,42,178,10,179,42,179,61,164,18,180,50,180,10,181,42,181
  1614 00006D6C B33DA412B432B40AB5-
  1614 00006D75 2AB5               
  1615 00006D77 5EA612B632B6085301-          DB 94,166,18,182,50,182,8,83,1,0,94,168,50,184,1,0,252,168,1,0
  1615 00006D80 005EA832B80100FCA8-
  1615 00006D89 0100               
  1616 00006D8B FDA82FB801005EA832-          DB 253,168,47,184,1,0,94,168,50,184,1,0,252,168,1,0,72,75,253,160
  1616 00006D94 B80100FCA80100484B-
  1616 00006D9D FDA0               
  1617 00006D9F 0FB02FB00D430AB12A-          DB 15,176,47,176,13,67,10,177,42,177,13,68,10,179,42,179,76,75,253,166
  1617 00006DA8 B10D440AB32AB34C4B-
  1617 00006DB1 FDA6               
  1618 00006DB3 0FB62FB61753FDA82F-          DB 15,182,47,182,23,83,253,168,47,184,6,0,15,176,47,176,3,67,168,161
  1618 00006DBC B806000FB02FB00343-
  1618 00006DC5 A8A1               
  1619 00006DC7 0EB12EB100440AB32A-          DB 14,177,46,177,0,68,10,179,42,179,15,182,47,182,8,83,1,0,94,168
  1619 00006DD0 B30FB62FB608530100-
  1619 00006DD9 5EA8               
  1620 00006DDB 32B80100FCA80100FD-          DB 50,184,1,0,252,168,1,0,253,168,47,184,1,0,94,168,50,184,1,0
  1620 00006DE4 A82FB801005EA832B8-
  1620 00006DED 0100               
  1621 00006DEF FCA801005EA012B032-          DB 252,168,1,0,94,160,18,176,50,176,13,67,167,161,10,177,42,177,13,68
  1621 00006DF8 B00D43A7A10AB12AB1-
  1621 00006E01 0D44               
  1622 00006E03 0AB32AB35EA612B632-          DB 10,179,42,179,94,166,18,182,50,182,23,83,61,167,18,183,50,183,253,168
  1622 00006E0C B617533DA712B732B7-
  1622 00006E15 FDA8               
  1623 00006E17 2FB80600404BA8A012-          DB 47,184,6,0,64,75,168,160,18,176,50,176,3,67,208,161,10,177,42,177
  1623 00006E20 B032B00343D0A10AB1-
  1623 00006E29 2AB1               
  1624 00006E2B 00440AB22AB20AB32A-          DB 0,68,10,178,42,178,10,179,42,179,141,164,15,180,47,180,10,181,42,181
  1624 00006E34 B38DA40FB42FB40AB5-
  1624 00006E3D 2AB5               
  1625 00006E3F A8A612B632B6085301-          DB 168,166,18,182,50,182,8,83,1,0,94,168,50,184,1,0,40,168,51,184
  1625 00006E48 005EA832B8010028A8-
  1625 00006E51 33B8               
  1626 00006E53 0100FDA82FB801005E-          DB 1,0,253,168,47,184,1,0,94,168,50,184,1,0,40,168,51,184,1,0
  1626 00006E5C A832B8010028A833B8-
  1626 00006E65 0100               
  1627 00006E67 484BFDA00FB02FB00D-          DB 72,75,253,160,15,176,47,176,13,67,168,161,14,177,46,177,13,68,10,179
  1627 00006E70 43A8A10EB12EB10D44-
  1627 00006E79 0AB3               
  1628 00006E7B 2AB34C4BFDA60FB62F-          DB 42,179,76,75,253,166,15,182,47,182,23,83,253,168,47,184,6,0,15,176
  1628 00006E84 B61753FDA82FB80600-
  1628 00006E8D 0FB0               
  1629 00006E8F 2FB00343D0A10AB12A-          DB 47,176,3,67,208,161,10,177,42,177,0,68,10,179,42,179,15,182,47,182
  1629 00006E98 B100440AB32AB30FB6-
  1629 00006EA1 2FB6               
  1630 00006EA3 085301005EA832B801-          DB 8,83,1,0,94,168,50,184,1,0,40,168,51,184,1,0,253,168,47,184
  1630 00006EAC 0028A833B80100FDA8-
  1630 00006EB5 2FB8               
  1631 00006EB7 01005EA832B8010028-          DB 1,0,94,168,50,184,1,0,40,168,51,184,1,0,168,160,18,176,50,176
  1631 00006EC0 A833B80100A8A012B0-
  1631 00006EC9 32B0               
  1632 00006ECB 0D430AB12AB10D440A-          DB 13,67,10,177,42,177,13,68,10,179,42,179,168,166,18,182,50,182,23,83
  1632 00006ED4 B32AB3A8A612B632B6-
  1632 00006EDD 1753               
  1633 00006EDF 8DA70FB72FB7FDA82F-          DB 141,167,15,183,47,183,253,168,47,184,6,0,64,75,61,160,18,176,50,176
  1633 00006EE8 B80600404B3DA012B0-
  1633 00006EF1 32B0               
  1634 00006EF3 03430EB12EB100440A-          DB 3,67,14,177,46,177,0,68,10,178,42,178,10,179,42,179,251,164,14,180
  1634 00006EFC B22AB20AB32AB3FBA4-
  1634 00006F05 0EB4               
  1635 00006F07 2EB40AB52AB53DA612-          DB 46,180,10,181,42,181,61,166,18,182,50,182,8,83,1,0,94,168,50,184
  1635 00006F10 B632B6085301005EA8-
  1635 00006F19 32B8               
  1636 00006F1B 010028A833B80100FD-          DB 1,0,40,168,51,184,1,0,253,168,47,184,1,0,94,168,50,184,1,0
  1636 00006F24 A82FB801005EA832B8-
  1636 00006F2D 0100               
  1637 00006F2F 28A833B80100484BFD-          DB 40,168,51,184,1,0,72,75,253,160,15,176,47,176,13,67,10,177,42,177
  1637 00006F38 A00FB02FB00D430AB1-
  1637 00006F41 2AB1               
  1638 00006F43 0D440AB22AB20AB32A-          DB 13,68,10,178,42,178,10,179,42,179,76,75,10,181,42,181,253,166,15,182
  1638 00006F4C B34C4B0AB52AB5FDA6-
  1638 00006F55 0FB6               
  1639 00006F57 2FB61753FDA82FB807-          DB 47,182,23,83,253,168,47,184,7,0,94,160,18,176,50,176,3,67,10,177
  1639 00006F60 005EA012B032B00343-
  1639 00006F69 0AB1               
  1640 00006F6B 2AB100440AB22AB20A-          DB 42,177,0,68,10,178,42,178,10,179,42,179,10,181,42,181,94,166,18,182
  1640 00006F74 B32AB30AB52AB55EA6-
  1640 00006F7D 12B6               
  1641 00006F7F 32B608535EA832B801-          DB 50,182,8,83,94,168,50,184,1,0,40,168,51,184,1,0,253,168,47,184
  1641 00006F88 0028A833B80100FDA8-
  1641 00006F91 2FB8               
  1642 00006F93 01005EA832B802003D-          DB 1,0,94,168,50,184,2,0,61,160,18,176,50,176,13,67,14,177,46,177
  1642 00006F9C A012B032B00D430EB1-
  1642 00006FA5 2EB1               
  1643 00006FA7 0D440AB22AB20AB32A-          DB 13,68,10,178,42,178,10,179,42,179,10,181,42,181,61,166,18,182,50,182
  1643 00006FB0 B30AB52AB53DA612B6-
  1643 00006FB9 32B6               
  1644 00006FBB 1753FDA82FB8060001-          DB 23,83,253,168,47,184,6,0,1,34,67,37,64,66,242,98,243,101,80,130
  1644 00006FC4 2243254042F262F365-
  1644 00006FCD 5082               
  1645 00006FCF F08502E201E5012843-          DB 240,133,2,226,1,229,1,40,67,43,64,72,0,75,242,104,243,107,80,136
  1645 00006FD8 2B4048004BF268F36B-
  1645 00006FE1 5088               
  1646 00006FE3 02E801EB0AC3013143-          DB 2,232,1,235,10,195,1,49,67,52,64,81,0,84,242,113,243,116,80,145
  1646 00006FEC 3440510054F271F374-
  1646 00006FF5 5091               
  1647 00006FF7 02F101F40AC7FDA00F-          DB 2,241,1,244,10,199,253,160,15,176,47,176,3,67,253,161,7,177,39,177
  1647 00007000 B02FB00343FDA107B1-
  1647 00007009 27B1               
  1648 0000700B 0344A8A212B232B23F-          DB 3,68,168,162,18,178,50,178,63,69,168,163,18,179,50,179,63,75,252,164
  1648 00007014 45A8A312B332B33F4B-
  1648 0000701D FCA4               
  1649 0000701F 12B432B40AB52AB5FD-          DB 18,180,50,180,10,181,42,181,253,166,15,182,47,182,3,83,168,167,18,183
  1649 00007028 A60FB62FB60353A8A7-
  1649 00007031 12B7               
  1650 00007033 32B73F540FB82FB802-          DB 50,183,63,84,15,184,47,184,2,0,94,168,50,184,1,0,252,168,1,0
  1650 0000703C 005EA832B80100FCA8-
  1650 00007045 0100               
  1651 00007047 FDA82FB801005EA832-          DB 253,168,47,184,1,0,94,168,50,184,1,0,252,168,1,0,40,160,19,176
  1651 00007050 B80100FCA8010028A0-
  1651 00007059 13B0               
  1652 0000705B 33B00F431CA10AB12A-          DB 51,176,15,67,28,161,10,177,42,177,15,68,40,166,19,182,51,182,15,83
  1652 00007064 B10F4428A613B633B6-
  1652 0000706D 0F53               
  1653 0000706F FDA82FB80600FDA00F-          DB 253,168,47,184,6,0,253,160,15,176,47,176,5,67,253,161,7,177,39,177
  1653 00007078 B02FB00543FDA107B1-
  1653 00007081 27B1               
  1654 00007083 0544FBA40EB42EB4FD-          DB 5,68,251,164,14,180,46,180,253,166,15,182,47,182,5,83,1,0,94,168
  1654 0000708C A60FB62FB605530100-
  1654 00007095 5EA8               
  1655 00007097 32B80100FCA80100FD-          DB 50,184,1,0,252,168,1,0,253,168,47,184,1,0,94,168,50,184,1,0
  1655 000070A0 A82FB801005EA832B8-
  1655 000070A9 0100               
  1656 000070AB FCA801004131C23406-          DB 252,168,1,0,65,49,194,52,6,81,0,84,35,113,242,116,240,145,1,241
  1656 000070B4 5100542371F274F091-
  1656 000070BD 01F1               
  1657 000070BF 00F404C70FB02FB011-          DB 0,244,4,199,15,176,47,176,17,67,7,177,39,177,17,68,15,182,47,182
  1657 000070C8 4307B127B111440FB6-
  1657 000070D1 2FB6               
  1658 000070D3 1153FCA712B732B70D-          DB 17,83,252,167,18,183,50,183,13,84,253,168,47,184,6,0,252,160,18,176
  1658 000070DC 54FDA82FB80600FCA0-
  1658 000070E5 12B0               
  1659 000070E7 32B007430BB12BB107-          DB 50,176,7,67,11,177,43,177,7,68,61,164,18,180,50,180,10,181,42,181
  1659 000070F0 443DA412B432B40AB5-
  1659 000070F9 2AB5               
  1660 000070FB FCA612B632B6075301-          DB 252,166,18,182,50,182,7,83,1,0,94,168,50,184,1,0,252,168,1,0
  1660 00007104 005EA832B80100FCA8-
  1660 0000710D 0100               
  1661 0000710F FDA82FB801005EA832-          DB 253,168,47,184,1,0,94,168,50,184,1,0,252,168,1,0,253,160,15,176
  1661 00007118 B80100FCA80100FDA0-
  1661 00007121 0FB0               
  1662 00007123 2FB0134307B127B113-          DB 47,176,19,67,7,177,39,177,19,68,253,166,15,182,47,182,19,83,251,167
  1662 0000712C 44FDA60FB62FB61353-
  1662 00007135 FBA7               
  1663 00007137 0EB72EB7FDA82FB806-          DB 14,183,46,183,253,168,47,184,6,0,15,176,47,176,9,67,7,177,39,177
  1663 00007140 000FB02FB0094307B1-
  1663 00007149 27B1               
  1664 0000714B 0944FBA40EB42EB40F-          DB 9,68,251,164,14,180,46,180,15,182,47,182,9,83,1,0,94,168,50,184
  1664 00007154 B62FB6095301005EA8-
  1664 0000715D 32B8               
  1665 0000715F 0100FCA80100FDA82F-          DB 1,0,252,168,1,0,253,168,47,184,1,0,94,168,50,184,1,0,252,168
  1665 00007168 B801005EA832B80100-
  1665 00007171 FCA8               
  1666 00007173 0100FCA012B032B015-          DB 1,0,252,160,18,176,50,176,21,67,11,177,43,177,21,68,252,166,18,182
  1666 0000717C 430BB12BB11544FCA6-
  1666 00007185 12B6               
  1667 00007187 32B615533DA712B732-          DB 50,182,21,83,61,167,18,183,50,183,253,168,47,184,6,0,40,160,19,176
  1667 00007190 B7FDA82FB8060028A0-
  1667 00007199 13B0               
  1668 0000719B 33B00B4307B127B10B-          DB 51,176,11,67,7,177,39,177,11,68,94,164,18,180,50,180,10,181,42,181
  1668 000071A4 445EA412B432B40AB5-
  1668 000071AD 2AB5               
  1669 000071AF 28A613B633B60B5301-          DB 40,166,19,182,51,182,11,83,1,0,94,168,50,184,1,0,252,168,1,0
  1669 000071B8 005EA832B80100FCA8-
  1669 000071C1 0100               
  1670 000071C3 FDA82FB801005EA832-          DB 253,168,47,184,1,0,94,168,50,184,1,0,252,168,1,0,253,160,15,176
  1670 000071CC B80100FCA80100FDA0-
  1670 000071D5 0FB0               
  1671 000071D7 2FB0174307B127B117-          DB 47,176,23,67,7,177,39,177,23,68,253,166,15,182,47,182,23,83,251,167
  1671 000071E0 44FDA60FB62FB61753-
  1671 000071E9 FBA7               
  1672 000071EB 0EB72EB7FDA82FB806-          DB 14,183,46,183,253,168,47,184,6,0,15,176,47,176,13,67,11,177,43,177
  1672 000071F4 000FB02FB00D430BB1-
  1672 000071FD 2BB1               
  1673 000071FF 0D440FB62FB60D5301-          DB 13,68,15,182,47,182,13,83,1,0,94,168,50,184,1,0,252,168,1,0
  1673 00007208 005EA832B80100FCA8-
  1673 00007211 0100               
  1674 00007213 FDA82FB801005EA832-          DB 253,168,47,184,1,0,94,168,50,184,1,0,252,168,1,0,40,160,19,176
  1674 0000721C B80100FCA8010028A0-
  1674 00007225 13B0               
  1675 00007227 33B0194307B127B119-          DB 51,176,25,67,7,177,39,177,25,68,40,166,19,182,51,182,25,83,94,167
  1675 00007230 4428A613B633B61953-
  1675 00007239 5EA7               
  1676 0000723B 12B732B7FDA82FB806-          DB 18,183,50,183,253,168,47,184,6,0,168,160,18,176,50,176,15,67,7,177
  1676 00007244 00A8A012B032B00F43-
  1676 0000724D 07B1               
  1677 0000724F 27B10F440AB52AB5A8-          DB 39,177,15,68,10,181,42,181,168,166,18,182,50,182,15,83,1,0,61,164
  1677 00007258 A612B632B60F530100-
  1677 00007261 3DA4               
  1678 00007263 5EA832B80100FCA801-          DB 94,168,50,184,1,0,252,168,1,0,253,168,47,184,1,0,94,168,50,184
  1678 0000726C 00FDA82FB801005EA8-
  1678 00007275 32B8               
  1679 00007277 0100FCA80100FDA00F-          DB 1,0,252,168,1,0,253,160,15,176,47,176,27,67,11,177,43,177,27,68
  1679 00007280 B02FB01B430BB12BB1-
  1679 00007289 1B44               
  1680 0000728B FDA60FB62FB61B53FD-          DB 253,166,15,182,47,182,27,83,253,168,47,184,6,0,252,160,18,176,50,176
  1680 00007294 A82FB80600FCA012B0-
  1680 0000729D 32B0               
  1681 0000729F 114307B127B11144FC-          DB 17,67,7,177,39,177,17,68,252,166,18,182,50,182,17,83,1,0,253,164
  1681 000072A8 A612B632B611530100-
  1681 000072B1 FDA4               
  1682 000072B3 2FB45EA832B80100D0-          DB 47,180,94,168,50,184,1,0,208,168,1,0,253,168,47,184,1,0,94,168
  1682 000072BC A80100FDA82FB80100-
  1682 000072C5 5EA8               
  1683 000072C7 32B80100D0A80100A8-          DB 50,184,1,0,208,168,1,0,168,160,18,176,50,176,29,67,7,177,39,177
  1683 000072D0 A012B032B01D4307B1-
  1683 000072D9 27B1               
  1684 000072DB 1D44A8A612B632B61D-          DB 29,68,168,166,18,182,50,182,29,83,253,168,47,184,1,0,61,167,5,0
  1684 000072E4 53FDA82FB801003DA7-
  1684 000072ED 0500               
  1685 000072EF A8A412B432B40AB52A-          DB 168,164,18,180,50,180,10,181,42,181,15,184,47,184,1,0,94,168,50,184
  1685 000072F8 B50FB82FB801005EA8-
  1685 00007301 32B8               
  1686 00007303 0100FCA80100FDA82F-          DB 1,0,252,168,1,0,253,168,47,184,1,0,94,168,50,184,1,0,252,168
  1686 0000730C B801005EA832B80100-
  1686 00007315 FCA8               
  1687 00007317 0100FDA82FB80100DE-          DB 1,0,253,168,47,184,1,0,222,164,253,167,47,183,1,0,252,164,5,0
  1687 00007320 A4FDA72FB70100FCA4-
  1687 00007329 0500               
  1688 0000732B 5EA832B80100FCA801-          DB 94,168,50,184,1,0,252,168,1,0,253,168,47,184,1,0,94,168,50,184
  1688 00007334 00FDA82FB801005EA8-
  1688 0000733D 32B8               
  1689 0000733F 0100FCA80100A8A712-          DB 1,0,252,168,1,0,168,167,18,183,50,183,253,168,47,184,6,0,10,181
  1689 00007348 B732B7FDA82FB80600-
  1689 00007351 0AB5               
  1690 00007353 2AB50100DEA75EA832-          DB 42,181,1,0,222,167,94,168,50,184,1,0,252,167,252,168,1,0,253,168
  1690 0000735C B80100FCA7FCA80100-
  1690 00007365 FDA8               
  1691 00007367 2FB801005EA832B801-          DB 47,184,1,0,94,168,50,184,1,0,252,168,1,0,253,168,47,184,6,0
  1691 00007370 00FCA80100FDA82FB8-
  1691 00007379 0600               
  1692 0000737B 8EA413B433B401005E-          DB 142,164,19,180,51,180,1,0,94,168,50,184,1,0,252,168,1,0,253,168
  1692 00007384 A832B80100FCA80100-
  1692 0000738D FDA8               
  1693 0000738F 2FB801005EA832B801-          DB 47,184,1,0,94,168,50,184,1,0,252,168,1,0,253,168,47,184,6,0
  1693 00007398 00FCA80100FDA82FB8-
  1693 000073A1 0600               
  1694 000073A3 0AB52AB501005EA832-          DB 10,181,42,181,1,0,94,168,50,184,1,0,127,164,252,168,1,0,121,164
  1694 000073AC B801007FA4FCA80100-
  1694 000073B5 79A4               
  1695 000073B7 FDA82FB801007FA45E-          DB 253,168,47,184,1,0,127,164,94,168,50,184,1,0,142,164,252,168,1,0
  1695 000073C0 A832B801008EA4FCA8-
  1695 000073C9 0100               
  1696 000073CB 8EA713B733B7FDA82F-          DB 142,167,19,183,51,183,253,168,47,184,1,0,159,164,1,0,165,164,1,0
  1696 000073D4 B801009FA40100A5A4-
  1696 000073DD 0100               
  1697 000073DF 9FA401008EA401007F-          DB 159,164,1,0,142,164,1,0,127,164,2,0,121,164,94,168,50,184,1,0
  1697 000073E8 A4020079A45EA832B8-
  1697 000073F1 0100               
  1698 000073F3 7FA4FCA801008EA4FD-          DB 127,164,252,168,1,0,142,164,253,168,47,184,1,0,159,164,94,168,50,184
  1698 000073FC A82FB801009FA45EA8-
  1698 00007405 32B8               
  1699 00007407 0100A5A4FCA80100FD-          DB 1,0,165,164,252,168,1,0,253,168,47,184,1,0,159,164,1,0,142,164
  1699 00007410 A82FB801009FA40100-
  1699 00007419 8EA4               
  1700 0000741B 7FA701007FA479A701-          DB 127,167,1,0,127,164,121,167,1,0,121,164,127,167,1,0,127,164,142,167
  1700 00007424 0079A47FA701007FA4-
  1700 0000742D 8EA7               
  1701 0000742F 0100A8A412B432B40A-          DB 1,0,168,164,18,180,50,180,10,181,42,181,1,0,159,167,94,168,50,184
  1701 00007438 B52AB501009FA75EA8-
  1701 00007441 32B8               
  1702 00007443 0100A5A7FCA801009F-          DB 1,0,165,167,252,168,1,0,159,167,253,168,47,184,1,0,142,167,94,168
  1702 0000744C A7FDA82FB801008EA7-
  1702 00007455 5EA8               
  1703 00007457 32B801007FA7FCA801-          DB 50,184,1,0,127,167,252,168,1,0,253,168,47,184,1,0,121,167,1,0
  1703 00007460 00FDA82FB8010079A7-
  1703 00007469 0100               
  1704 0000746B 7FA701008EA701009F-          DB 127,167,1,0,142,167,1,0,159,167,1,0,165,167,1,0,10,181,42,181
  1704 00007474 A70100A5A701000AB5-
  1704 0000747D 2AB5               
  1705 0000747F 010050A49FA75EA832-          DB 1,0,80,164,159,167,94,168,50,184,1,0,12,164,142,167,252,168,1,0
  1705 00007488 B801000CA48EA7FCA8-
  1705 00007491 0100               
  1706 00007493 ADA42FB47FA7FDA82F-          DB 173,164,47,180,127,167,253,168,47,184,1,0,85,164,121,167,94,168,50,184
  1706 0000749C B8010055A479A75EA8-
  1706 000074A5 32B8               
  1707 000074A7 01000CA47FA7FCA801-          DB 1,0,12,164,127,167,252,168,1,0,168,167,18,183,50,183,253,168,47,184
  1707 000074B0 00A8A712B732B7FDA8-
  1707 000074B9 2FB8               
  1708 000074BB 0100CFA42EB401009A-          DB 1,0,207,164,46,180,1,0,154,164,1,0,109,164,1,0,70,164,1,0
  1708 000074C4 A401006DA4010046A4-
  1708 000074CD 0100               
  1709 000074CF 23A4010028A40FB42F-          DB 35,164,1,0,40,164,15,180,47,180,10,181,42,181,15,184,47,184,1,0
  1709 000074D8 B40AB52AB50FB82FB8-
  1709 000074E1 0100               
  1710 000074E3 5EA832B8010028A833-          DB 94,168,50,184,1,0,40,168,51,184,1,0,253,168,47,184,1,0,94,168
  1710 000074EC B80100FDA82FB80100-
  1710 000074F5 5EA8               
  1711 000074F7 32B8010028A833B801-          DB 50,184,1,0,40,168,51,184,1,0,253,168,47,184,1,0,80,167,1,0
  1711 00007500 00FDA82FB8010050A7-
  1711 00007509 0100               
  1712 0000750B 0CA70100ADA72FB701-          DB 12,167,1,0,173,167,47,183,1,0,85,167,1,0,12,167,2,0,207,167
  1712 00007514 0055A701000CA70200-
  1712 0000751D CFA7               
  1713 0000751F 2EB75EA832B801009A-          DB 46,183,94,168,50,184,1,0,154,167,40,168,51,184,1,0,109,167,253,168
  1713 00007528 A728A833B801006DA7-
  1713 00007531 FDA8               
  1714 00007533 2FB8010046A75EA832-          DB 47,184,1,0,70,167,94,168,50,184,1,0,35,167,40,168,51,184,1,0
  1714 0000753C B8010023A728A833B8-
  1714 00007545 0100               
  1715 00007547 28A70FB72FB7FDA82F-          DB 40,167,15,183,47,183,253,168,47,184,6,0,10,181,42,181,1,0,94,168
  1715 00007550 B806000AB52AB50100-
  1715 00007559 5EA8               
  1716 0000755B 32B8010028A833B801-          DB 50,184,1,0,40,168,51,184,1,0,253,168,47,184,1,0,94,168,50,184
  1716 00007564 00FDA82FB801005EA8-
  1716 0000756D 32B8               
  1717 0000756F 010028A833B80100FD-          DB 1,0,40,168,51,184,1,0,253,168,47,184,7,0,94,168,50,184,1,0
  1717 00007578 A82FB807005EA832B8-
  1717 00007581 0100               
  1718 00007583 22A428A833B8010020-          DB 34,164,40,168,51,184,1,0,32,164,253,168,47,184,1,0,34,164,94,168
  1718 0000758C A4FDA82FB8010022A4-
  1718 00007595 5EA8               
  1719 00007597 32B8010028A428A833-          DB 50,184,1,0,40,164,40,168,51,184,1,0,253,168,47,184,1,0,47,164
  1719 000075A0 B80100FDA82FB80100-
  1719 000075A9 2FA4               
  1720 000075AB 010031A401002FA401-          DB 1,0,49,164,1,0,47,164,1,0,40,164,1,0,34,164,1,0,141,164
  1720 000075B4 0028A4010022A40100-
  1720 000075BD 8DA4               
  1721 000075BF 0FB42FB40AB52AB501-          DB 15,180,47,180,10,181,42,181,1,0,94,168,50,184,1,0,40,168,51,184
  1721 000075C8 005EA832B8010028A8-
  1721 000075D1 33B8               
  1722 000075D3 0100FDA82FB801005E-          DB 1,0,253,168,47,184,1,0,94,168,50,184,1,0,40,168,51,184,1,0
  1722 000075DC A832B8010028A833B8-
  1722 000075E5 0100               
  1723 000075E7 FDA82FB8020022A701-          DB 253,168,47,184,2,0,34,167,1,0,32,167,1,0,34,167,1,0,40,167
  1723 000075F0 0020A7010022A70100-
  1723 000075F9 28A7               
  1724 000075FB 02002FA75EA832B801-          DB 2,0,47,167,94,168,50,184,1,0,49,167,40,168,51,184,1,0,47,167
  1724 00007604 0031A728A833B80100-
  1724 0000760D 2FA7               
  1725 0000760F FDA82FB8010028A75E-          DB 253,168,47,184,1,0,40,167,94,168,50,184,1,0,34,167,40,168,51,184
  1725 00007618 A832B8010022A728A8-
  1725 00007621 33B8               
  1726 00007623 01008DA70FB72FB7FD-          DB 1,0,141,167,15,183,47,183,253,168,47,184,6,0,10,181,42,181,1,0
  1726 0000762C A82FB806000AB52AB5-
  1726 00007635 0100               
  1727 00007637 5EA832B8010028A833-          DB 94,168,50,184,1,0,40,168,51,184,1,0,253,168,47,184,1,0,94,168
  1727 00007640 B80100FDA82FB80100-
  1727 00007649 5EA8               
  1728 0000764B 32B8010028A833B801-          DB 50,184,1,0,40,168,51,184,1,0,253,168,47,184,7,0,131,164,94,168
  1728 00007654 00FDA82FB8070083A4-
  1728 0000765D 5EA8               
  1729 0000765F 32B8010086A428A833-          DB 50,184,1,0,134,164,40,168,51,184,1,0,141,164,253,168,47,184,1,0
  1729 00007668 B801008DA4FDA82FB8-
  1729 00007671 0100               
  1730 00007673 96A45EA832B8010099-          DB 150,164,94,168,50,184,1,0,153,164,40,168,51,184,1,0,253,168,47,184
  1730 0000767C A428A833B80100FDA8-
  1730 00007685 2FB8               
  1731 00007687 010096A401008DA401-          DB 1,0,150,164,1,0,141,164,1,0,134,164,1,0,131,164,1,0,134,164
  1731 00007690 0086A4010083A40100-
  1731 00007699 86A4               
  1732 0000769B 0100FDA40FB42FB40A-          DB 1,0,253,164,15,180,47,180,10,181,42,181,15,184,47,184,1,0,94,168
  1732 000076A4 B52AB50FB82FB80100-
  1732 000076AD 5EA8               
  1733 000076AF 32B80100FCA80100FD-          DB 50,184,1,0,252,168,1,0,253,168,47,184,1,0,94,168,50,184,1,0
  1733 000076B8 A82FB801005EA832B8-
  1733 000076C1 0100               
  1734 000076C3 FCA80100FDA82FB801-          DB 252,168,1,0,253,168,47,184,1,0,131,167,1,0,134,167,1,0,141,167
  1734 000076CC 0083A7010086A70100-
  1734 000076D5 8DA7               
  1735 000076D7 010096A7010099A702-          DB 1,0,150,167,1,0,153,167,2,0,150,167,94,168,50,184,1,0,141,167
  1735 000076E0 0096A75EA832B80100-
  1735 000076E9 8DA7               
  1736 000076EB FCA8010086A7FDA82F-          DB 252,168,1,0,134,167,253,168,47,184,1,0,131,167,94,168,50,184,1,0
  1736 000076F4 B8010083A75EA832B8-
  1736 000076FD 0100               
  1737 000076FF 86A7FCA80100FDA70F-          DB 134,167,252,168,1,0,253,167,15,183,47,183,253,168,47,184,6,0,10,181
  1737 00007708 B72FB7FDA82FB80600-
  1737 00007711 0AB5               
  1738 00007713 2AB501005EA832B801-          DB 42,181,1,0,94,168,50,184,1,0,4,164,50,180,252,168,1,0,5,164
  1738 0000771C 0004A432B4FCA80100-
  1738 00007725 05A4               
  1739 00007727 FDA82FB8010004A45E-          DB 253,168,47,184,1,0,4,164,94,168,50,184,1,0,253,164,47,180,252,168
  1739 00007730 A832B80100FDA42FB4-
  1739 00007739 FCA8               
  1740 0000773B 0100FDA82FB80100F3-          DB 1,0,253,168,47,184,1,0,243,164,1,0,240,164,1,0,243,164,1,0
  1740 00007744 A40100F0A40100F3A4-
  1740 0000774D 0100               
  1741 0000774F FDA4010004A432B402-          DB 253,164,1,0,4,164,50,180,2,0,5,164,94,168,50,184,1,0,4,164
  1741 00007758 0005A45EA832B80100-
  1741 00007761 04A4               
  1742 00007763 FCA80100FDA42FB4FD-          DB 252,168,1,0,253,164,47,180,253,168,47,184,1,0,243,164,94,168,50,184
  1742 0000776C A82FB80100F3A45EA8-
  1742 00007775 32B8               
  1743 00007777 0100F0A4FCA80100FD-          DB 1,0,240,164,252,168,1,0,253,168,47,184,1,0,243,164,1,0,253,164
  1743 00007780 A82FB80100F3A40100-
  1743 00007789 FDA4               
  1744 0000778B 04A732B7010004A432-          DB 4,167,50,183,1,0,4,164,50,180,5,167,1,0,5,164,4,167,1,0
  1744 00007794 B405A7010005A404A7-
  1744 0000779D 0100               
  1745 0000779F 04A4FDA72FB701005E-          DB 4,164,253,167,47,183,1,0,94,164,18,180,50,180,10,181,42,181,1,0
  1745 000077A8 A412B432B40AB52AB5-
  1745 000077B1 0100               
  1746 000077B3 F3A75EA832B80100F0-          DB 243,167,94,168,50,184,1,0,240,167,40,168,51,184,1,0,243,167,253,168
  1746 000077BC A728A833B80100F3A7-
  1746 000077C5 FDA8               
  1747 000077C7 2FB8020004A732B728-          DB 47,184,2,0,4,167,50,183,40,168,51,184,1,0,253,168,47,184,4,0
  1747 000077D0 A833B80100FDA82FB8-
  1747 000077D9 0400               
  1748 000077DB FDA72FB70100F0A703-          DB 253,167,47,183,1,0,240,167,3,0,243,167,94,168,50,184,1,0,253,167
  1748 000077E4 00F3A75EA832B80100-
  1748 000077ED FDA7               
  1749 000077EF 28A833B8010005A732-          DB 40,168,51,184,1,0,5,167,50,183,94,168,50,184,2,0,4,167,40,168
  1749 000077F8 B75EA832B8020004A7-
  1749 00007801 28A8               
  1750 00007803 33B801005EA712B732-          DB 51,184,1,0,94,167,18,183,50,183,253,168,47,184,6,0,253,160,15,176
  1750 0000780C B7FDA82FB80600FDA0-
  1750 00007815 0FB0               
  1751 00007817 2FB0174307B127B121-          DB 47,176,23,67,7,177,39,177,33,68,168,164,18,180,50,180,10,181,42,181
  1751 00007820 44A8A412B432B40AB5-
  1751 00007829 2AB5               
  1752 0000782B 01005EA832B8010028-          DB 1,0,94,168,50,184,1,0,40,168,51,184,1,0,253,168,47,184,1,0
  1752 00007834 A833B80100FDA82FB8-
  1752 0000783D 0100               
  1753 0000783F 5EA832B8010028A833-          DB 94,168,50,184,1,0,40,168,51,184,1,0,15,176,47,176,13,67,7,177
  1753 00007848 B801000FB02FB00D43-
  1753 00007851 07B1               
  1754 00007853 27B117440AB52AB5FD-          DB 39,177,23,68,10,181,42,181,253,168,47,184,6,0,15,176,47,176,3,67
  1754 0000785C A82FB806000FB02FB0-
  1754 00007865 0343               
  1755 00007867 07B127B10D44FCA412-          DB 7,177,39,177,13,68,252,164,18,180,50,180,10,181,42,181,1,0,94,168
  1755 00007870 B432B40AB52AB50100-
  1755 00007879 5EA8               
  1756 0000787B 32B8010028A833B801-          DB 50,184,1,0,40,168,51,184,1,0,253,168,47,184,1,0,94,168,50,184
  1756 00007884 00FDA82FB801005EA8-
  1756 0000788D 32B8               
  1757 0000788F 010028A833B801000F-          DB 1,0,40,168,51,184,1,0,15,176,47,176,7,177,39,177,3,68,142,164
  1757 00007898 B02FB007B127B10344-
  1757 000078A1 8EA4               
  1758 000078A3 13B433B4084C0AB52A-          DB 19,180,51,180,8,76,10,181,42,181,168,167,18,183,50,183,253,168,47,184
  1758 000078AC B5A8A712B732B7FDA8-
  1758 000078B5 2FB8               
  1759 000078B7 060000220025C04200-          DB 6,0,0,34,0,37,192,66,0,69,248,98,210,101,240,130,31,133,0,226
  1759 000078C0 45F862D265F0821F85-
  1759 000078C9 00E2               
  1760 000078CB 00E50F28002B004840-          DB 0,229,15,40,0,43,0,72,64,75,247,104,231,107,240,136,0,232,3,235
  1760 000078D4 4BF768E76BF08800E8-
  1760 000078DD 03EB               
  1761 000078DF 08C30FB02FB007B127-          DB 8,195,15,176,47,176,7,177,39,177,0,68,167,162,10,178,42,178,167,163
  1761 000078E8 B10044A7A20AB22AB2-
  1761 000078F1 A7A3               
  1762 000078F3 0AB32AB3FCA412B432-          DB 10,179,42,179,252,164,18,180,50,180,4,76,10,181,42,181,253,166,15,182
  1762 000078FC B4044C0AB52AB5FDA6-
  1762 00007905 0FB6               
  1763 00007907 2FB6085312B732B73F-          DB 47,182,8,83,18,183,50,183,63,84,15,184,47,184,1,0,94,168,50,184
  1763 00007910 540FB82FB801005EA8-
  1763 00007919 32B8               
  1764 0000791B 0100FCA80100FDA82F-          DB 1,0,252,168,1,0,253,168,47,184,1,0,94,168,50,184,1,0,252,168
  1764 00007924 B801005EA832B80100-
  1764 0000792D FCA8               
  1765 0000792F 0100484B28A013B033-          DB 1,0,72,75,40,160,19,176,51,176,13,67,28,161,10,177,42,177,13,68
  1765 00007938 B00D431CA10AB12AB1-
  1765 00007941 0D44               
  1766 00007943 0AB32AB34C4B28A613-          DB 10,179,42,179,76,75,40,166,19,182,51,182,23,83,253,168,47,184,6,0
  1766 0000794C B633B61753FDA82FB8-
  1766 00007955 0600               
  1767 00007957 FDA00FB02FB00343FD-          DB 253,160,15,176,47,176,3,67,253,161,7,177,39,177,0,68,10,179,42,179
  1767 00007960 A107B127B100440AB3-
  1767 00007969 2AB3               
  1768 0000796B FBA40EB42EB4FDA60F-          DB 251,164,14,180,46,180,253,166,15,182,47,182,8,83,1,0,94,168,50,184
  1768 00007974 B62FB6085301005EA8-
  1768 0000797D 32B8               
  1769 0000797F 0100FCA80100FDA82F-          DB 1,0,252,168,1,0,253,168,47,184,1,0,94,168,50,184,1,0,252,168
  1769 00007988 B801005EA832B80100-
  1769 00007991 FCA8               
  1770 00007993 01000FB02FB00D4307-          DB 1,0,15,176,47,176,13,67,7,177,39,177,13,68,10,179,42,179,15,182
  1770 0000799C B127B10D440AB32AB3-
  1770 000079A5 0FB6               
  1771 000079A7 2FB61753FCA712B732-          DB 47,182,23,83,252,167,18,183,50,183,10,84,253,168,47,184,6,0,64,75
  1771 000079B0 B70A54FDA82FB80600-
  1771 000079B9 404B               
  1772 000079BB FCA012B032B003430B-          DB 252,160,18,176,50,176,3,67,11,177,43,177,0,68,10,178,42,178,10,179
  1772 000079C4 B12BB100440AB22AB2-
  1772 000079CD 0AB3               
  1773 000079CF 2AB33DA412B432B40A-          DB 42,179,61,164,18,180,50,180,10,181,42,181,252,166,18,182,50,182,8,83
  1773 000079D8 B52AB5FCA612B632B6-
  1773 000079E1 0853               
  1774 000079E3 01005EA832B80100FC-          DB 1,0,94,168,50,184,1,0,252,168,1,0,253,168,47,184,1,0,94,168
  1774 000079EC A80100FDA82FB80100-
  1774 000079F5 5EA8               
  1775 000079F7 32B80100FCA8010048-          DB 50,184,1,0,252,168,1,0,72,75,253,160,15,176,47,176,13,67,7,177
  1775 00007A00 4BFDA00FB02FB00D43-
  1775 00007A09 07B1               
  1776 00007A0B 27B10D440AB32AB34C-          DB 39,177,13,68,10,179,42,179,76,75,253,166,15,182,47,182,23,83,251,167
  1776 00007A14 4BFDA60FB62FB61753-
  1776 00007A1D FBA7               
  1777 00007A1F 0EB72EB7FDA82FB806-          DB 14,183,46,183,253,168,47,184,6,0,15,176,47,176,3,67,7,177,39,177
  1777 00007A28 000FB02FB0034307B1-
  1777 00007A31 27B1               
  1778 00007A33 00440AB32AB3FBA40E-          DB 0,68,10,179,42,179,251,164,14,180,46,180,15,182,47,182,8,83,1,0
  1778 00007A3C B42EB40FB62FB60853-
  1778 00007A45 0100               
  1779 00007A47 5EA832B80100FCA801-          DB 94,168,50,184,1,0,252,168,1,0,253,168,47,184,1,0,94,168,50,184
  1779 00007A50 00FDA82FB801005EA8-
  1779 00007A59 32B8               
  1780 00007A5B 0100FCA80100FCA012-          DB 1,0,252,168,1,0,252,160,18,176,50,176,13,67,11,177,43,177,13,68
  1780 00007A64 B032B00D430BB12BB1-
  1780 00007A6D 0D44               
  1781 00007A6F 0AB32AB3FCA612B632-          DB 10,179,42,179,252,166,18,182,50,182,23,83,61,167,18,183,50,183,253,168
  1781 00007A78 B617533DA712B732B7-
  1781 00007A81 FDA8               
  1782 00007A83 2FB80600404B28A013-          DB 47,184,6,0,64,75,40,160,19,176,51,176,3,67,7,177,39,177,0,68
  1782 00007A8C B033B0034307B127B1-
  1782 00007A95 0044               
  1783 00007A97 0AB22AB20AB32AB35E-          DB 10,178,42,178,10,179,42,179,94,164,18,180,50,180,10,181,42,181,40,166
  1783 00007AA0 A412B432B40AB52AB5-
  1783 00007AA9 28A6               
  1784 00007AAB 13B633B6085301005E-          DB 19,182,51,182,8,83,1,0,94,168,50,184,1,0,252,168,1,0,253,168
  1784 00007AB4 A832B80100FCA80100-
  1784 00007ABD FDA8               
  1785 00007ABF 2FB801005EA832B801-          DB 47,184,1,0,94,168,50,184,1,0,252,168,1,0,72,75,253,160,15,176
  1785 00007AC8 00FCA80100484BFDA0-
  1785 00007AD1 0FB0               
  1786 00007AD3 2FB00D4307B127B10D-          DB 47,176,13,67,7,177,39,177,13,68,10,179,42,179,76,75,253,166,15,182
  1786 00007ADC 440AB32AB34C4BFDA6-
  1786 00007AE5 0FB6               
  1787 00007AE7 2FB61753FBA70EB72E-          DB 47,182,23,83,251,167,14,183,46,183,253,168,47,184,6,0,15,176,47,176
  1787 00007AF0 B7FDA82FB806000FB0-
  1787 00007AF9 2FB0               
  1788 00007AFB 03430BB12BB100440A-          DB 3,67,11,177,43,177,0,68,10,179,42,179,15,182,47,182,8,83,1,0
  1788 00007B04 B32AB30FB62FB60853-
  1788 00007B0D 0100               
  1789 00007B0F 5EA832B80100FCA801-          DB 94,168,50,184,1,0,252,168,1,0,253,168,47,184,1,0,94,168,50,184
  1789 00007B18 00FDA82FB801005EA8-
  1789 00007B21 32B8               
  1790 00007B23 0100FCA8010028A013-          DB 1,0,252,168,1,0,40,160,19,176,51,176,13,67,7,177,39,177,13,68
  1790 00007B2C B033B00D4307B127B1-
  1790 00007B35 0D44               
  1791 00007B37 0AB32AB328A613B633-          DB 10,179,42,179,40,166,19,182,51,182,23,83,94,167,18,183,50,183,253,168
  1791 00007B40 B617535EA712B732B7-
  1791 00007B49 FDA8               
  1792 00007B4B 2FB80600404BA8A012-          DB 47,184,6,0,64,75,168,160,18,176,50,176,3,67,7,177,39,177,0,68
  1792 00007B54 B032B0034307B127B1-
  1792 00007B5D 0044               
  1793 00007B5F 0AB22AB20AB32AB30A-          DB 10,178,42,178,10,179,42,179,10,181,42,181,168,166,18,182,50,182,8,83
  1793 00007B68 B52AB5A8A612B632B6-
  1793 00007B71 0853               
  1794 00007B73 01003DA45EA832B801-          DB 1,0,61,164,94,168,50,184,1,0,252,168,1,0,253,168,47,184,1,0
  1794 00007B7C 00FCA80100FDA82FB8-
  1794 00007B85 0100               
  1795 00007B87 5EA832B80100FCA801-          DB 94,168,50,184,1,0,252,168,1,0,72,75,253,160,15,176,47,176,13,67
  1795 00007B90 00484BFDA00FB02FB0-
  1795 00007B99 0D43               
  1796 00007B9B 0BB12BB10D440AB32A-          DB 11,177,43,177,13,68,10,179,42,179,76,75,253,166,15,182,47,182,23,83
  1796 00007BA4 B34C4BFDA60FB62FB6-
  1796 00007BAD 1753               
  1797 00007BAF FDA82FB80600FCA012-          DB 253,168,47,184,6,0,252,160,18,176,50,176,3,67,7,177,39,177,0,68
  1797 00007BB8 B032B0034307B127B1-
  1797 00007BC1 0044               
  1798 00007BC3 0AB32AB3FCA612B632-          DB 10,179,42,179,252,166,18,182,50,182,8,83,1,0,253,164,47,180,94,168
  1798 00007BCC B608530100FDA42FB4-
  1798 00007BD5 5EA8               
  1799 00007BD7 32B80100D0A80100FD-          DB 50,184,1,0,208,168,1,0,253,168,47,184,1,0,94,168,50,184,1,0
  1799 00007BE0 A82FB801005EA832B8-
  1799 00007BE9 0100               
  1800 00007BEB D0A80100A8A012B032-          DB 208,168,1,0,168,160,18,176,50,176,13,67,7,177,39,177,13,68,10,179
  1800 00007BF4 B00D4307B127B10D44-
  1800 00007BFD 0AB3               
  1801 00007BFF 2AB3A8A612B632B617-          DB 42,179,168,166,18,182,50,182,23,83,253,168,47,184,1,0,61,167,5,0
  1801 00007C08 53FDA82FB801003DA7-
  1801 00007C11 0500               
  1802 00007C13 404BFDA00FB02FB003-          DB 64,75,253,160,15,176,47,176,3,67,11,177,43,177,0,68,10,178,42,178
  1802 00007C1C 430BB12BB100440AB2-
  1802 00007C25 2AB2               
  1803 00007C27 0AB32AB3A8A412B432-          DB 10,179,42,179,168,164,18,180,50,180,10,181,42,181,253,166,15,182,47,182
  1803 00007C30 B40AB52AB5FDA60FB6-
  1803 00007C39 2FB6               
  1804 00007C3B 08530FB82FB801005E-          DB 8,83,15,184,47,184,1,0,94,168,50,184,1,0,252,168,1,0,253,168
  1804 00007C44 A832B80100FCA80100-
  1804 00007C4D FDA8               
  1805 00007C4F 2FB801005EA832B801-          DB 47,184,1,0,94,168,50,184,1,0,252,168,1,0,72,75,252,160,18,176
  1805 00007C58 00FCA80100484BFCA0-
  1805 00007C61 12B0               
  1806 00007C63 32B00D4307B127B10D-          DB 50,176,13,67,7,177,39,177,13,68,10,179,42,179,76,75,252,166,18,182
  1806 00007C6C 440AB32AB34C4BFCA6-
  1806 00007C75 12B6               
  1807 00007C77 32B61753FDA82FB801-          DB 50,182,23,83,253,168,47,184,1,0,222,164,253,167,47,183,1,0,252,164
  1807 00007C80 00DEA4FDA72FB70100-
  1807 00007C89 FCA4               
  1808 00007C8B 0400FDA00FB02FB003-          DB 4,0,253,160,15,176,47,176,3,67,7,177,39,177,0,68,10,179,42,179
  1808 00007C94 4307B127B100440AB3-
  1808 00007C9D 2AB3               
  1809 00007C9F FDA60FB62FB6085301-          DB 253,166,15,182,47,182,8,83,1,0,94,168,50,184,1,0,252,168,1,0
  1809 00007CA8 005EA832B80100FCA8-
  1809 00007CB1 0100               
  1810 00007CB3 FDA82FB801005EA832-          DB 253,168,47,184,1,0,94,168,50,184,1,0,252,168,1,0,15,176,47,176
  1810 00007CBC B80100FCA801000FB0-
  1810 00007CC5 2FB0               
  1811 00007CC7 0D430BB12BB10D440A-          DB 13,67,11,177,43,177,13,68,10,179,42,179,15,182,47,182,23,83,168,167
  1811 00007CD0 B32AB30FB62FB61753-
  1811 00007CD9 A8A7               
  1812 00007CDB 12B732B7FDA82FB806-          DB 18,183,50,183,253,168,47,184,6,0,64,75,94,160,18,176,50,176,3,67
  1812 00007CE4 00404B5EA012B032B0-
  1812 00007CED 0343               
  1813 00007CEF 07B127B100440AB22A-          DB 7,177,39,177,0,68,10,178,42,178,10,179,42,179,10,181,42,181,94,166
  1813 00007CF8 B20AB32AB30AB52AB5-
  1813 00007D01 5EA6               
  1814 00007D03 12B632B608530100DE-          DB 18,182,50,182,8,83,1,0,222,167,94,168,50,184,1,0,252,167,252,168
  1814 00007D0C A75EA832B80100FCA7-
  1814 00007D15 FCA8               
  1815 00007D17 0100FDA82FB801005E-          DB 1,0,253,168,47,184,1,0,94,168,50,184,1,0,252,168,1,0,72,75
  1815 00007D20 A832B80100FCA80100-
  1815 00007D29 484B               
  1816 00007D2B FDA00FB02FB00D4307-          DB 253,160,15,176,47,176,13,67,7,177,39,177,13,68,10,179,42,179,76,75
  1816 00007D34 B127B10D440AB32AB3-
  1816 00007D3D 4C4B               
  1817 00007D3F FDA60FB62FB61753FD-          DB 253,166,15,182,47,182,23,83,253,168,47,184,6,0,15,176,47,176,3,67
  1817 00007D48 A82FB806000FB02FB0-
  1817 00007D51 0343               
  1818 00007D53 0BB12BB100440AB32A-          DB 11,177,43,177,0,68,10,179,42,179,142,164,19,180,51,180,15,182,47,182
  1818 00007D5C B38EA413B433B40FB6-
  1818 00007D65 2FB6               
  1819 00007D67 085301005EA832B801-          DB 8,83,1,0,94,168,50,184,1,0,252,168,1,0,253,168,47,184,1,0
  1819 00007D70 00FCA80100FDA82FB8-
  1819 00007D79 0100               
  1820 00007D7B 5EA832B80100FCA801-          DB 94,168,50,184,1,0,252,168,1,0,94,160,18,176,50,176,13,67,7,177
  1820 00007D84 005EA012B032B00D43-
  1820 00007D8D 07B1               
  1821 00007D8F 27B10D440AB32AB35E-          DB 39,177,13,68,10,179,42,179,94,166,18,182,50,182,23,83,253,168,47,184
  1821 00007D98 A612B632B61753FDA8-
  1821 00007DA1 2FB8               
  1822 00007DA3 0600404BA8A012B032-          DB 6,0,64,75,168,160,18,176,50,176,3,67,28,161,10,177,42,177,0,68
  1822 00007DAC B003431CA10AB12AB1-
  1822 00007DB5 0044               
  1823 00007DB7 0AB22AB20AB32AB30A-          DB 10,178,42,178,10,179,42,179,10,181,42,181,168,166,18,182,50,182,8,83
  1823 00007DC0 B52AB5A8A612B632B6-
  1823 00007DC9 0853               
  1824 00007DCB 01005EA832B801007F-          DB 1,0,94,168,50,184,1,0,127,164,252,168,1,0,121,164,253,168,47,184
  1824 00007DD4 A4FCA8010079A4FDA8-
  1824 00007DDD 2FB8               
  1825 00007DDF 01007FA45EA832B801-          DB 1,0,127,164,94,168,50,184,1,0,142,164,252,168,1,0,72,75,253,160
  1825 00007DE8 008EA4FCA80100484B-
  1825 00007DF1 FDA0               
  1826 00007DF3 0FB02FB00D43FDA10B-          DB 15,176,47,176,13,67,253,161,11,177,43,177,13,68,10,179,42,179,76,75
  1826 00007DFC B12BB10D440AB32AB3-
  1826 00007E05 4C4B               
  1827 00007E07 FDA60FB62FB617538E-          DB 253,166,15,182,47,182,23,83,142,167,19,183,51,183,253,168,47,184,1,0
  1827 00007E10 A713B733B7FDA82FB8-
  1827 00007E19 0100               
  1828 00007E1B 9FA40100A5A401009F-          DB 159,164,1,0,165,164,1,0,159,164,1,0,142,164,1,0,127,164,1,0
  1828 00007E24 A401008EA401007FA4-
  1828 00007E2D 0100               
  1829 00007E2F 0FB02FB003431CA10A-          DB 15,176,47,176,3,67,28,161,10,177,42,177,0,68,10,179,42,179,15,182
  1829 00007E38 B12AB100440AB32AB3-
  1829 00007E41 0FB6               
  1830 00007E43 2FB60853010079A45E-          DB 47,182,8,83,1,0,121,164,94,168,50,184,1,0,127,164,252,168,1,0
  1830 00007E4C A832B801007FA4FCA8-
  1830 00007E55 0100               
  1831 00007E57 8EA4FDA82FB801009F-          DB 142,164,253,168,47,184,1,0,159,164,94,168,50,184,1,0,165,164,252,168
  1831 00007E60 A45EA832B80100A5A4-
  1831 00007E69 FCA8               
  1832 00007E6B 0100A8A012B032B00D-          DB 1,0,168,160,18,176,50,176,13,67,10,177,42,177,13,68,10,179,42,179
  1832 00007E74 430AB12AB10D440AB3-
  1832 00007E7D 2AB3               
  1833 00007E7F A8A612B632B61753FD-          DB 168,166,18,182,50,182,23,83,253,168,47,184,1,0,159,164,1,0,142,164
  1833 00007E88 A82FB801009FA40100-
  1833 00007E91 8EA4               
  1834 00007E93 7FA701007FA479A701-          DB 127,167,1,0,127,164,121,167,1,0,121,164,127,167,1,0,127,164,142,167
  1834 00007E9C 0079A47FA701007FA4-
  1834 00007EA5 8EA7               
  1835 00007EA7 0100404B3DA012B032-          DB 1,0,64,75,61,160,18,176,50,176,3,67,14,177,46,177,0,68,10,178
  1835 00007EB0 B003430EB12EB10044-
  1835 00007EB9 0AB2               
  1836 00007EBB 2AB20AB32AB3A8A412-          DB 42,178,10,179,42,179,168,164,18,180,50,180,10,181,42,181,61,166,18,182
  1836 00007EC4 B432B40AB52AB53DA6-
  1836 00007ECD 12B6               
  1837 00007ECF 32B6085301009FA75E-          DB 50,182,8,83,1,0,159,167,94,168,50,184,1,0,165,167,252,168,1,0
  1837 00007ED8 A832B80100A5A7FCA8-
  1837 00007EE1 0100               
  1838 00007EE3 9FA7FDA82FB801008E-          DB 159,167,253,168,47,184,1,0,142,167,94,168,50,184,1,0,127,167,252,168
  1838 00007EEC A75EA832B801007FA7-
  1838 00007EF5 FCA8               
  1839 00007EF7 0100484BFDA00FB02F-          DB 1,0,72,75,253,160,15,176,47,176,13,67,10,177,42,177,13,68,10,179
  1839 00007F00 B00D430AB12AB10D44-
  1839 00007F09 0AB3               
  1840 00007F0B 2AB34C4BFDA60FB62F-          DB 42,179,76,75,253,166,15,182,47,182,23,83,253,168,47,184,1,0,121,167
  1840 00007F14 B61753FDA82FB80100-
  1840 00007F1D 79A7               
  1841 00007F1F 01007FA701008EA701-          DB 1,0,127,167,1,0,142,167,1,0,159,167,1,0,165,167,1,0,94,160
  1841 00007F28 009FA70100A5A70100-
  1841 00007F31 5EA0               
  1842 00007F33 12B032B003430AB12A-          DB 18,176,50,176,3,67,10,177,42,177,0,68,10,178,42,178,10,179,42,179
  1842 00007F3C B100440AB22AB20AB3-
  1842 00007F45 2AB3               
  1843 00007F47 0AB52AB55EA612B632-          DB 10,181,42,181,94,166,18,182,50,182,8,83,1,0,80,164,159,167,94,168
  1843 00007F50 B60853010050A49FA7-
  1843 00007F59 5EA8               
  1844 00007F5B 32B801000CA48EA7FC-          DB 50,184,1,0,12,164,142,167,252,168,1,0,173,164,47,180,127,167,253,168
  1844 00007F64 A80100ADA42FB47FA7-
  1844 00007F6D FDA8               
  1845 00007F6F 2FB8010055A479A75E-          DB 47,184,1,0,85,164,121,167,94,168,50,184,1,0,12,164,127,167,252,168
  1845 00007F78 A832B801000CA47FA7-
  1845 00007F81 FCA8               
  1846 00007F83 01003DA012B032B00D-          DB 1,0,61,160,18,176,50,176,13,67,14,177,46,177,13,68,10,179,42,179
  1846 00007F8C 430EB12EB10D440AB3-
  1846 00007F95 2AB3               
  1847 00007F97 3DA612B632B61753A8-          DB 61,166,18,182,50,182,23,83,168,167,18,183,50,183,253,168,47,184,1,0
  1847 00007FA0 A712B732B7FDA82FB8-
  1847 00007FA9 0100               
  1848 00007FAB CFA42EB401009AA401-          DB 207,164,46,180,1,0,154,164,1,0,109,164,1,0,70,164,1,0,35,164
  1848 00007FB4 006DA4010046A40100-
  1848 00007FBD 23A4               
  1849 00007FBF 0100404BFDA00FB02F-          DB 1,0,64,75,253,160,15,176,47,176,3,67,167,161,10,177,42,177,0,68
  1849 00007FC8 B00343A7A10AB12AB1-
  1849 00007FD1 0044               
  1850 00007FD3 0AB22AB20AB32AB30A-          DB 10,178,42,178,10,179,42,179,10,181,42,181,253,166,15,182,47,182,8,83
  1850 00007FDC B52AB5FDA60FB62FB6-
  1850 00007FE5 0853               
  1851 00007FE7 0FB82FB801006DA45E-          DB 15,184,47,184,1,0,109,164,94,168,50,184,1,0,207,164,40,168,51,184
  1851 00007FF0 A832B80100CFA428A8-
  1851 00007FF9 33B8               
  1852 00007FFB 010055A42FB4FDA82F-          DB 1,0,85,164,47,180,253,168,47,184,1,0,12,164,50,180,94,168,50,184
  1852 00008004 B801000CA432B45EA8-
  1852 0000800D 32B8               
  1853 0000800F 0100A8A428A833B801-          DB 1,0,168,164,40,168,51,184,1,0,72,75,40,160,19,176,51,176,13,67
  1853 00008018 00484B28A013B033B0-
  1853 00008021 0D43               
  1854 00008023 D0A10AB12AB10D440A-          DB 208,161,10,177,42,177,13,68,10,179,42,179,76,75,40,166,19,182,51,182
  1854 0000802C B32AB34C4B28A613B6-
  1854 00008035 33B6               
  1855 00008037 1753FDA82FB8010028-          DB 23,83,253,168,47,184,1,0,40,164,51,180,80,167,1,0,12,167,1,0
  1855 00008040 A433B450A701000CA7-
  1855 00008049 0100               
  1856 0000804B ADA72FB7010055A701-          DB 173,167,47,183,1,0,85,167,1,0,12,167,1,0,253,160,15,176,47,176
  1856 00008054 000CA70100FDA00FB0-
  1856 0000805D 2FB0               
  1857 0000805F 0343A7A10AB12AB100-          DB 3,67,167,161,10,177,42,177,0,68,10,179,42,179,253,166,15,182,47,182
  1857 00008068 440AB32AB3FDA60FB6-
  1857 00008071 2FB6               
  1858 00008073 08530100CFA72EB75E-          DB 8,83,1,0,207,167,46,183,94,168,50,184,1,0,154,167,40,168,51,184
  1858 0000807C A832B801009AA728A8-
  1858 00008085 33B8               
  1859 00008087 01006DA7FDA82FB801-          DB 1,0,109,167,253,168,47,184,1,0,70,167,94,168,50,184,1,0,35,167
  1859 00008090 0046A75EA832B80100-
  1859 00008099 23A7               
  1860 0000809B 28A833B801000FB02F-          DB 40,168,51,184,1,0,15,176,47,176,13,67,10,177,42,177,13,68,10,179
  1860 000080A4 B00D430AB12AB10D44-
  1860 000080AD 0AB3               
  1861 000080AF 2AB30FB62FB61753FD-          DB 42,179,15,182,47,182,23,83,253,168,47,184,1,0,109,167,1,0,207,167
  1861 000080B8 A82FB801006DA70100-
  1861 000080C1 CFA7               
  1862 000080C3 010055A72FB701000C-          DB 1,0,85,167,47,183,1,0,12,167,50,183,1,0,168,167,1,0,64,75
  1862 000080CC A732B70100A8A70100-
  1862 000080D5 404B               
  1863 000080D7 FCA012B032B00343A8-          DB 252,160,18,176,50,176,3,67,168,161,14,177,46,177,0,68,10,178,42,178
  1863 000080E0 A10EB12EB100440AB2-
  1863 000080E9 2AB2               
  1864 000080EB 0AB32AB30AB52AB5FC-          DB 10,179,42,179,10,181,42,181,252,166,18,182,50,182,8,83,1,0,40,167
  1864 000080F4 A612B632B608530100-
  1864 000080FD 28A7               
  1865 000080FF 33B75EA832B8010028-          DB 51,183,94,168,50,184,1,0,40,168,51,184,1,0,253,168,47,184,1,0
  1865 00008108 A833B80100FDA82FB8-
  1865 00008111 0100               
  1866 00008113 5EA832B8010028A833-          DB 94,168,50,184,1,0,40,168,51,184,1,0,72,75,253,160,15,176,47,176
  1866 0000811C B80100484BFDA00FB0-
  1866 00008125 2FB0               
  1867 00008127 0D43A7A10AB12AB10D-          DB 13,67,167,161,10,177,42,177,13,68,10,179,42,179,76,75,253,166,15,182
  1867 00008130 440AB32AB34C4BFDA6-
  1867 00008139 0FB6               
  1868 0000813B 2FB61753FDA82FB806-          DB 47,182,23,83,253,168,47,184,6,0,15,176,47,176,3,67,10,177,42,177
  1868 00008144 000FB02FB003430AB1-
  1868 0000814D 2AB1               
  1869 0000814F 00440AB32AB30FB62F-          DB 0,68,10,179,42,179,15,182,47,182,8,83,1,0,94,168,50,184,1,0
  1869 00008158 B6085301005EA832B8-
  1869 00008161 0100               
  1870 00008163 1CA428A833B8010018-          DB 28,164,40,168,51,184,1,0,24,164,253,168,47,184,1,0,28,164,94,168
  1870 0000816C A4FDA82FB801001CA4-
  1870 00008175 5EA8               
  1871 00008177 32B8010028A428A833-          DB 50,184,1,0,40,164,40,168,51,184,1,0,252,160,18,176,50,176,13,67
  1871 00008180 B80100FCA012B032B0-
  1871 00008189 0D43               
  1872 0000818B A8A10EB12EB10D440A-          DB 168,161,14,177,46,177,13,68,10,179,42,179,252,166,18,182,50,182,23,83
  1872 00008194 B32AB3FCA612B632B6-
  1872 0000819D 1753               
  1873 0000819F FDA82FB8010036A401-          DB 253,168,47,184,1,0,54,164,1,0,59,164,1,0,54,164,1,0,40,164
  1873 000081A8 003BA4010036A40100-
  1873 000081B1 28A4               
  1874 000081B3 01001CA40100404B28-          DB 1,0,28,164,1,0,64,75,40,160,19,176,51,176,3,67,167,161,10,177
  1874 000081BC A013B033B00343A7A1-
  1874 000081C5 0AB1               
  1875 000081C7 2AB100440AB22AB20A-          DB 42,177,0,68,10,178,42,178,10,179,42,179,252,164,18,180,50,180,10,181
  1875 000081D0 B32AB3FCA412B432B4-
  1875 000081D9 0AB5               
  1876 000081DB 2AB528A613B633B608-          DB 42,181,40,166,19,182,51,182,8,83,1,0,94,168,50,184,1,0,40,168
  1876 000081E4 5301005EA832B80100-
  1876 000081ED 28A8               
  1877 000081EF 33B80100FDA82FB801-          DB 51,184,1,0,253,168,47,184,1,0,94,168,50,184,1,0,40,168,51,184
  1877 000081F8 005EA832B8010028A8-
  1877 00008201 33B8               
  1878 00008203 0100484BFDA00FB02F-          DB 1,0,72,75,253,160,15,176,47,176,13,67,10,177,42,177,13,68,10,179
  1878 0000820C B00D430AB12AB10D44-
  1878 00008215 0AB3               
  1879 00008217 2AB34C4BFDA60FB62F-          DB 42,179,76,75,253,166,15,182,47,182,23,83,253,168,47,184,2,0,28,167
  1879 00008220 B61753FDA82FB80200-
  1879 00008229 1CA7               
  1880 0000822B 010018A701001CA701-          DB 1,0,24,167,1,0,28,167,1,0,40,167,1,0,15,176,47,176,3,67
  1880 00008234 0028A701000FB02FB0-
  1880 0000823D 0343               
  1881 0000823F A8A10EB12EB100440A-          DB 168,161,14,177,46,177,0,68,10,179,42,179,15,182,47,182,8,83,1,0
  1881 00008248 B32AB30FB62FB60853-
  1881 00008251 0100               
  1882 00008253 36A75EA832B801003B-          DB 54,167,94,168,50,184,1,0,59,167,40,168,51,184,1,0,54,167,253,168
  1882 0000825C A728A833B8010036A7-
  1882 00008265 FDA8               
  1883 00008267 2FB8010028A75EA832-          DB 47,184,1,0,40,167,94,168,50,184,1,0,28,167,40,168,51,184,1,0
  1883 00008270 B801001CA728A833B8-
  1883 00008279 0100               
  1884 0000827B 28A013B033B00D43A7-          DB 40,160,19,176,51,176,13,67,167,161,10,177,42,177,13,68,10,179,42,179
  1884 00008284 A10AB12AB10D440AB3-
  1884 0000828D 2AB3               
  1885 0000828F 28A613B633B61753FC-          DB 40,166,19,182,51,182,23,83,252,167,18,183,50,183,253,168,47,184,6,0
  1885 00008298 A712B732B7FDA82FB8-
  1885 000082A1 0600               
  1886 000082A3 404BA8A012B032B003-          DB 64,75,168,160,18,176,50,176,3,67,10,177,42,177,0,68,10,178,42,178
  1886 000082AC 430AB12AB100440AB2-
  1886 000082B5 2AB2               
  1887 000082B7 0AB32AB30AB52AB5A8-          DB 10,179,42,179,10,181,42,181,168,166,18,182,50,182,8,83,1,0,94,168
  1887 000082C0 A612B632B608530100-
  1887 000082C9 5EA8               
  1888 000082CB 32B8010028A833B801-          DB 50,184,1,0,40,168,51,184,1,0,253,168,47,184,1,0,94,168,50,184
  1888 000082D4 00FDA82FB801005EA8-
  1888 000082DD 32B8               
  1889 000082DF 010028A833B8010048-          DB 1,0,40,168,51,184,1,0,72,75,253,160,15,176,47,176,13,67,168,161
  1889 000082E8 4BFDA00FB02FB00D43-
  1889 000082F1 A8A1               
  1890 000082F3 0EB12EB10D440AB32A-          DB 14,177,46,177,13,68,10,179,42,179,76,75,253,166,15,182,47,182,23,83
  1890 000082FC B34C4BFDA60FB62FB6-
  1890 00008305 1753               
  1891 00008307 FDA82FB80600FCA012-          DB 253,168,47,184,6,0,252,160,18,176,50,176,3,67,167,161,10,177,42,177
  1891 00008310 B032B00343A7A10AB1-
  1891 00008319 2AB1               
  1892 0000831B 00440AB32AB3FCA612-          DB 0,68,10,179,42,179,252,166,18,182,50,182,8,83,1,0,237,164,94,168
  1892 00008324 B632B608530100EDA4-
  1892 0000832D 5EA8               
  1893 0000832F 32B80100F1A428A833-          DB 50,184,1,0,241,164,40,168,51,184,1,0,252,164,253,168,47,184,1,0
  1893 00008338 B80100FCA4FDA82FB8-
  1893 00008341 0100               
  1894 00008343 08A433B45EA832B801-          DB 8,164,51,180,94,168,50,184,1,0,12,164,40,168,51,184,1,0,168,160
  1894 0000834C 000CA428A833B80100-
  1894 00008355 A8A0               
  1895 00008357 12B032B00D430AB12A-          DB 18,176,50,176,13,67,10,177,42,177,13,68,10,179,42,179,168,166,18,182
  1895 00008360 B10D440AB32AB3A8A6-
  1895 00008369 12B6               
  1896 0000836B 32B61753FDA82FB801-          DB 50,182,23,83,253,168,47,184,1,0,8,164,1,0,252,164,50,180,1,0
  1896 00008374 0008A40100FCA432B4-
  1896 0000837D 0100               
  1897 0000837F F1A40100EDA40100F1-          DB 241,164,1,0,237,164,1,0,241,164,1,0,64,75,253,160,15,176,47,176
  1897 00008388 A40100404BFDA00FB0-
  1897 00008391 2FB0               
  1898 00008393 0343A8A10EB12EB100-          DB 3,67,168,161,14,177,46,177,0,68,10,178,42,178,10,179,42,179,168,164
  1898 0000839C 440AB22AB20AB32AB3-
  1898 000083A5 A8A4               
  1899 000083A7 12B432B40AB52AB5FD-          DB 18,180,50,180,10,181,42,181,253,166,15,182,47,182,8,83,15,184,47,184
  1899 000083B0 A60FB62FB608530FB8-
  1899 000083B9 2FB8               
  1900 000083BB 01005EA832B80100FC-          DB 1,0,94,168,50,184,1,0,252,168,1,0,253,168,47,184,1,0,94,168
  1900 000083C4 A80100FDA82FB80100-
  1900 000083CD 5EA8               
  1901 000083CF 32B80100FCA8010048-          DB 50,184,1,0,252,168,1,0,72,75,252,160,18,176,50,176,13,67,167,161
  1901 000083D8 4BFCA012B032B00D43-
  1901 000083E1 A7A1               
  1902 000083E3 0AB12AB10D440AB32A-          DB 10,177,42,177,13,68,10,179,42,179,76,75,252,166,18,182,50,182,23,83
  1902 000083EC B34C4BFCA612B632B6-
  1902 000083F5 1753               
  1903 000083F7 FDA82FB80100EDA701-          DB 253,168,47,184,1,0,237,167,1,0,241,167,1,0,252,167,1,0,8,167
  1903 00008400 00F1A70100FCA70100-
  1903 00008409 08A7               
  1904 0000840B 33B701000CA70100FD-          DB 51,183,1,0,12,167,1,0,253,160,15,176,47,176,3,67,10,177,42,177
  1904 00008414 A00FB02FB003430AB1-
  1904 0000841D 2AB1               
  1905 0000841F 00440AB32AB3FDA60F-          DB 0,68,10,179,42,179,253,166,15,182,47,182,8,83,1,0,8,167,94,168
  1905 00008428 B62FB60853010008A7-
  1905 00008431 5EA8               
  1906 00008433 32B80100FCA732B7FC-          DB 50,184,1,0,252,167,50,183,252,168,2,0,237,167,94,168,1,0,241,167
  1906 0000843C A80200EDA75EA80100-
  1906 00008445 F1A7               
  1907 00008447 FCA802000FB02FB00D-          DB 252,168,2,0,15,176,47,176,13,67,168,161,14,177,46,177,13,68,10,179
  1907 00008450 43A8A10EB12EB10D44-
  1907 00008459 0AB3               
  1908 0000845B 2AB30FB62FB61753A8-          DB 42,179,15,182,47,182,23,83,168,167,18,183,50,183,253,168,47,184,6,0
  1908 00008464 A712B732B7FDA82FB8-
  1908 0000846D 0600               
  1909 0000846F 404B5EA012B032B003-          DB 64,75,94,160,18,176,50,176,3,67,167,161,10,177,42,177,0,68,10,178
  1909 00008478 43A7A10AB12AB10044-
  1909 00008481 0AB2               
  1910 00008483 2AB20AB32AB30AB52A-          DB 42,178,10,179,42,179,10,181,42,181,94,166,18,182,50,182,8,83,1,0
  1910 0000848C B55EA612B632B60853-
  1910 00008495 0100               
  1911 00008497 5EA832B80100B1A4FC-          DB 94,168,50,184,1,0,177,164,252,168,1,0,181,164,253,168,47,184,1,0
  1911 000084A0 A80100B5A4FDA82FB8-
  1911 000084A9 0100               
  1912 000084AB B1A45EA832B80100A8-          DB 177,164,94,168,50,184,1,0,168,164,252,168,1,0,72,75,253,160,15,176
  1912 000084B4 A4FCA80100484BFDA0-
  1912 000084BD 0FB0               
  1913 000084BF 2FB00D430AB12AB10D-          DB 47,176,13,67,10,177,42,177,13,68,10,179,42,179,76,75,253,166,15,182
  1913 000084C8 440AB32AB34C4BFDA6-
  1913 000084D1 0FB6               
  1914 000084D3 2FB61753FDA82FB801-          DB 47,182,23,83,253,168,47,184,1,0,159,164,1,0,156,164,1,0,159,164
  1914 000084DC 009FA401009CA40100-
  1914 000084E5 9FA4               
  1915 000084E7 0100A8A40100B1A401-          DB 1,0,168,164,1,0,177,164,1,0,15,176,47,176,3,67,168,161,14,177
  1915 000084F0 000FB02FB00343A8A1-
  1915 000084F9 0EB1               
  1916 000084FB 2EB100440AB32AB30F-          DB 46,177,0,68,10,179,42,179,15,182,47,182,8,83,1,0,181,164,94,168
  1916 00008504 B62FB608530100B5A4-
  1916 0000850D 5EA8               
  1917 0000850F 32B80100B1A4FCA801-          DB 50,184,1,0,177,164,252,168,1,0,168,164,253,168,47,184,1,0,159,164
  1917 00008518 00A8A4FDA82FB80100-
  1917 00008521 9FA4               
  1918 00008523 5EA832B801009CA4FC-          DB 94,168,50,184,1,0,156,164,252,168,1,0,94,160,18,176,50,176,13,67
  1918 0000852C A801005EA012B032B0-
  1918 00008535 0D43               
  1919 00008537 A7A10AB12AB10D440A-          DB 167,161,10,177,42,177,13,68,10,179,42,179,94,166,18,182,50,182,23,83
  1919 00008540 B32AB35EA612B632B6-
  1919 00008549 1753               
  1920 0000854B FDA82FB801009FA401-          DB 253,168,47,184,1,0,159,164,1,0,168,164,177,167,1,0,177,164,181,167
  1920 00008554 00A8A4B1A70100B1A4-
  1920 0000855D B5A7               
  1921 0000855F 0100B5A4B1A70100B1-          DB 1,0,181,164,177,167,1,0,177,164,168,167,1,0,64,75,168,160,18,176
  1921 00008568 A4A8A70100404BA8A0-
  1921 00008571 12B0               
  1922 00008573 32B00343D0A10AB12A-          DB 50,176,3,67,208,161,10,177,42,177,0,68,10,178,42,178,10,179,42,179
  1922 0000857C B100440AB22AB20AB3-
  1922 00008585 2AB3               
  1923 00008587 5EA412B432B40AB52A-          DB 94,164,18,180,50,180,10,181,42,181,168,166,18,182,50,182,8,83,1,0
  1923 00008590 B5A8A612B632B60853-
  1923 00008599 0100               
  1924 0000859B 9FA75EA832B801009C-          DB 159,167,94,168,50,184,1,0,156,167,40,168,51,184,1,0,159,167,253,168
  1924 000085A4 A728A833B801009FA7-
  1924 000085AD FDA8               
  1925 000085AF 2FB80100A8A75EA832-          DB 47,184,1,0,168,167,94,168,50,184,1,0,177,167,40,168,51,184,1,0
  1925 000085B8 B80100B1A728A833B8-
  1925 000085C1 0100               
  1926 000085C3 484BFDA00FB02FB00D-          DB 72,75,253,160,15,176,47,176,13,67,168,161,14,177,46,177,13,68,10,179
  1926 000085CC 43A8A10EB12EB10D44-
  1926 000085D5 0AB3               
  1927 000085D7 2AB34C4BFDA60FB62F-          DB 42,179,76,75,253,166,15,182,47,182,23,83,253,168,47,184,1,0,181,167
  1927 000085E0 B61753FDA82FB80100-
  1927 000085E9 B5A7               
  1928 000085EB 0100B1A70100A8A701-          DB 1,0,177,167,1,0,168,167,1,0,159,167,1,0,156,167,1,0,15,176
  1928 000085F4 009FA701009CA70100-
  1928 000085FD 0FB0               
  1929 000085FF 2FB00343D0A10AB12A-          DB 47,176,3,67,208,161,10,177,42,177,0,68,10,179,42,179,15,182,47,182
  1929 00008608 B100440AB32AB30FB6-
  1929 00008611 2FB6               
  1930 00008613 085301009FA75EA832-          DB 8,83,1,0,159,167,94,168,50,184,1,0,168,167,40,168,51,184,1,0
  1930 0000861C B80100A8A728A833B8-
  1930 00008625 0100               
  1931 00008627 B1A7FDA82FB80100B5-          DB 177,167,253,168,47,184,1,0,181,167,94,168,50,184,1,0,177,167,40,168
  1931 00008630 A75EA832B80100B1A7-
  1931 00008639 28A8               
  1932 0000863B 33B80100A8A012B032-          DB 51,184,1,0,168,160,18,176,50,176,13,67,10,177,42,177,13,68,10,179
  1932 00008644 B00D430AB12AB10D44-
  1932 0000864D 0AB3               
  1933 0000864F 2AB3A8A612B632B617-          DB 42,179,168,166,18,182,50,182,23,83,94,167,18,183,50,183,253,168,47,184
  1933 00008658 535EA712B732B7FDA8-
  1933 00008661 2FB8               
  1934 00008663 0600404B3DA012B032-          DB 6,0,64,75,61,160,18,176,50,176,3,67,14,177,46,177,0,68,10,178
  1934 0000866C B003430EB12EB10044-
  1934 00008675 0AB2               
  1935 00008677 2AB20AB32AB3A8A412-          DB 42,178,10,179,42,179,168,164,18,180,50,180,10,181,42,181,61,166,18,182
  1935 00008680 B432B40AB52AB53DA6-
  1935 00008689 12B6               
  1936 0000868B 32B6085301005EA832-          DB 50,182,8,83,1,0,94,168,50,184,1,0,40,168,51,184,1,0,253,168
  1936 00008694 B8010028A833B80100-
  1936 0000869D FDA8               
  1937 0000869F 2FB801005EA832B801-          DB 47,184,1,0,94,168,50,184,1,0,40,168,51,184,1,0,72,75,253,160
  1937 000086A8 0028A833B80100484B-
  1937 000086B1 FDA0               
  1938 000086B3 0FB02FB00D430AB12A-          DB 15,176,47,176,13,67,10,177,42,177,13,68,10,178,42,178,10,179,42,179
  1938 000086BC B10D440AB22AB20AB3-
  1938 000086C5 2AB3               
  1939 000086C7 4C4B0AB52AB5FDA60F-          DB 76,75,10,181,42,181,253,166,15,182,47,182,23,83,253,168,47,184,6,0
  1939 000086D0 B62FB61753FDA82FB8-
  1939 000086D9 0600               
  1940 000086DB 5EA012B032B003430A-          DB 94,160,18,176,50,176,3,67,10,177,42,177,0,68,10,178,42,178,10,179
  1940 000086E4 B12AB100440AB22AB2-
  1940 000086ED 0AB3               
  1941 000086EF 2AB3FCA412B432B40A-          DB 42,179,252,164,18,180,50,180,10,181,42,181,94,166,18,182,50,182,8,83
  1941 000086F8 B52AB55EA612B632B6-
  1941 00008701 0853               
  1942 00008703 01005EA832B8010028-          DB 1,0,94,168,50,184,1,0,40,168,51,184,1,0,253,168,47,184,1,0
  1942 0000870C A833B80100FDA82FB8-
  1942 00008715 0100               
  1943 00008717 5EA832B8010028A833-          DB 94,168,50,184,1,0,40,168,51,184,1,0,61,160,18,176,50,176,13,67
  1943 00008720 B801003DA012B032B0-
  1943 00008729 0D43               
  1944 0000872B 0EB12EB10D440AB22A-          DB 14,177,46,177,13,68,10,178,42,178,10,179,42,179,142,164,19,180,51,180
  1944 00008734 B20AB32AB38EA413B4-
  1944 0000873D 33B4               
  1945 0000873F 084C0AB52AB53DA612-          DB 8,76,10,181,42,181,61,166,18,182,50,182,23,83,168,167,18,183,50,183
  1945 00008748 B632B61753A8A712B7-
  1945 00008751 32B7               
  1946 00008753 FDA82FB80600404BFD-          DB 253,168,47,184,6,0,64,75,253,160,15,176,47,176,3,67,253,161,7,177
  1946 0000875C A00FB02FB00343FDA1-
  1946 00008765 07B1               
  1947 00008767 27B100440AB22AB20A-          DB 39,177,0,68,10,178,42,178,10,179,42,179,168,164,18,180,50,180,7,76
  1947 00008770 B32AB3A8A412B432B4-
  1947 00008779 074C               
  1948 0000877B 0AB52AB5FDA60FB62F-          DB 10,181,42,181,253,166,15,182,47,182,8,83,18,183,50,183,63,84,168,168
  1948 00008784 B6085312B732B73F54-
  1948 0000878D A8A8               
  1949 0000878F 12B832B83F55060048-          DB 18,184,50,184,63,85,6,0,72,75,40,160,19,176,51,176,13,67,28,161
  1949 00008798 4B28A013B033B00D43-
  1949 000087A1 1CA1               
  1950 000087A3 0AB12AB10D440AB32A-          DB 10,177,42,177,13,68,10,179,42,179,76,75,40,166,19,182,51,182,23,83
  1950 000087AC B34C4B28A613B633B6-
  1950 000087B5 1753               
  1951 000087B7 0100B5A40100C2A401-          DB 1,0,181,164,1,0,194,164,1,0,208,164,1,0,222,164,1,0,237,164
  1951 000087C0 00D0A40100DEA40100-
  1951 000087C9 EDA4               
  1952 000087CB 0100FDA00FB02FB003-          DB 1,0,253,160,15,176,47,176,3,67,253,161,7,177,39,177,0,68,10,179
  1952 000087D4 43FDA107B127B10044-
  1952 000087DD 0AB3               
  1953 000087DF 2AB3FDA60FB62FB608-          DB 42,179,253,166,15,182,47,182,8,83,1,0,252,164,5,0,15,176,47,176
  1953 000087E8 530100FCA405000FB0-
  1953 000087F1 2FB0               
  1954 000087F3 0D4307B127B10D440A-          DB 13,67,7,177,39,177,13,68,10,179,42,179,15,182,47,182,23,83,18,183
  1954 000087FC B32AB30FB62FB61753-
  1954 00008805 12B7               
  1955 00008807 32B70D540600404BFC-          DB 50,183,13,84,6,0,64,75,252,160,18,176,50,176,3,67,11,177,43,177
  1955 00008810 A012B032B003430BB1-
  1955 00008819 2BB1               
  1956 0000881B 00440AB22AB20AB32A-          DB 0,68,10,178,42,178,10,179,42,179,10,181,42,181,252,166,18,182,50,182
  1956 00008824 B30AB52AB5FCA612B6-
  1956 0000882D 32B6               
  1957 0000882F 08530100B5A70100C2-          DB 8,83,1,0,181,167,1,0,194,167,1,0,208,167,1,0,222,167,1,0
  1957 00008838 A70100D0A70100DEA7-
  1957 00008841 0100               
  1958 00008843 EDA70100484BFDA00F-          DB 237,167,1,0,72,75,253,160,15,176,47,176,13,67,7,177,39,177,13,68
  1958 0000884C B02FB00D4307B127B1-
  1958 00008855 0D44               
  1959 00008857 0AB32AB34C4BFDA60F-          DB 10,179,42,179,76,75,253,166,15,182,47,182,23,83,1,0,252,167,5,0
  1959 00008860 B62FB617530100FCA7-
  1959 00008869 0500               
  1960 0000886B 0FB02FB0034307B127-          DB 15,176,47,176,3,67,7,177,39,177,0,68,10,179,42,179,15,182,47,182
  1960 00008874 B100440AB32AB30FB6-
  1960 0000887D 2FB6               
  1961 0000887F 08530600FCA012B032-          DB 8,83,6,0,252,160,18,176,50,176,13,67,11,177,43,177,13,68,10,179
  1961 00008888 B00D430BB12BB10D44-
  1961 00008891 0AB3               
  1962 00008893 2AB3FCA612B632B617-          DB 42,179,252,166,18,182,50,182,23,83,6,0,64,75,40,160,19,176,51,176
  1962 0000889C 530600404B28A013B0-
  1962 000088A5 33B0               
  1963 000088A7 034307B127B100440A-          DB 3,67,7,177,39,177,0,68,10,178,42,178,10,179,42,179,10,181,42,181
  1963 000088B0 B22AB20AB32AB30AB5-
  1963 000088B9 2AB5               
  1964 000088BB 28A613B633B6085306-          DB 40,166,19,182,51,182,8,83,6,0,72,75,253,160,15,176,47,176,13,67
  1964 000088C4 00484BFDA00FB02FB0-
  1964 000088CD 0D43               
  1965 000088CF 07B127B10D440AB32A-          DB 7,177,39,177,13,68,10,179,42,179,76,75,253,166,15,182,47,182,23,83
  1965 000088D8 B34C4BFDA60FB62FB6-
  1965 000088E1 1753               
  1966 000088E3 06000FB02FB003430B-          DB 6,0,15,176,47,176,3,67,11,177,43,177,0,68,10,179,42,179,15,182
  1966 000088EC B12BB100440AB32AB3-
  1966 000088F5 0FB6               
  1967 000088F7 2FB60853060028A013-          DB 47,182,8,83,6,0,40,160,19,176,51,176,13,67,7,177,39,177,13,68
  1967 00008900 B033B00D4307B127B1-
  1967 00008909 0D44               
  1968 0000890B 0AB32AB328A613B633-          DB 10,179,42,179,40,166,19,182,51,182,23,83,6,0,64,75,168,160,18,176
  1968 00008914 B617530600404BA8A0-
  1968 0000891D 12B0               
  1969 0000891F 32B0034307B127B100-          DB 50,176,3,67,7,177,39,177,0,68,10,178,42,178,10,179,42,179,10,181
  1969 00008928 440AB22AB20AB32AB3-
  1969 00008931 0AB5               
  1970 00008933 2AB5A8A612B632B608-          DB 42,181,168,166,18,182,50,182,8,83,2,0,231,164,1,0,222,164,1,0
  1970 0000893C 530200E7A40100DEA4-
  1970 00008945 0100               
  1971 00008947 E7A40100FCA4010048-          DB 231,164,1,0,252,164,1,0,72,75,253,160,15,176,47,176,13,67,11,177
  1971 00008950 4BFDA00FB02FB00D43-
  1971 00008959 0BB1               
  1972 0000895B 2BB10D440AB32AB34C-          DB 43,177,13,68,10,179,42,179,76,75,253,166,15,182,47,182,23,83,1,0
  1972 00008964 4BFDA60FB62FB61753-
  1972 0000896D 0100               
  1973 0000896F 14A433B401001DA401-          DB 20,164,51,180,1,0,29,164,1,0,20,164,1,0,252,164,50,180,1,0
  1973 00008978 0014A40100FCA432B4-
  1973 00008981 0100               
  1974 00008983 E7A40100FCA012B032-          DB 231,164,1,0,252,160,18,176,50,176,3,67,7,177,39,177,0,68,10,179
  1974 0000898C B0034307B127B10044-
  1974 00008995 0AB3               
  1975 00008997 2AB3FCA612B632B608-          DB 42,179,252,166,18,182,50,182,8,83,1,0,222,164,1,0,231,164,1,0
  1975 000089A0 530100DEA40100E7A4-
  1975 000089A9 0100               
  1976 000089AB FCA4010014A433B401-          DB 252,164,1,0,20,164,51,180,1,0,29,164,1,0,168,160,18,176,50,176
  1976 000089B4 001DA40100A8A012B0-
  1976 000089BD 32B0               
  1977 000089BF 0D4307B127B10D440A-          DB 13,67,7,177,39,177,13,68,10,179,42,179,168,166,18,182,50,182,23,83
  1977 000089C8 B32AB3A8A612B632B6-
  1977 000089D1 1753               
  1978 000089D3 010014A40100FCA432-          DB 1,0,20,164,1,0,252,164,50,180,231,167,1,0,231,164,222,167,1,0
  1978 000089DC B4E7A70100E7A4DEA7-
  1978 000089E5 0100               
  1979 000089E7 DEA4E7A70100E7A4FC-          DB 222,164,231,167,1,0,231,164,252,167,1,0,64,75,253,160,15,176,47,176
  1979 000089F0 A70100404BFDA00FB0-
  1979 000089F9 2FB0               
  1980 000089FB 03430BB12BB100440A-          DB 3,67,11,177,43,177,0,68,10,178,42,178,10,179,42,179,10,181,42,181
  1980 00008A04 B22AB20AB32AB30AB5-
  1980 00008A0D 2AB5               
  1981 00008A0F FDA60FB62FB6085301-          DB 253,166,15,182,47,182,8,83,1,0,252,164,20,167,51,183,1,0,20,164
  1981 00008A18 00FCA414A733B70100-
  1981 00008A21 14A4               
  1982 00008A23 33B41DA701001DA414-          DB 51,180,29,167,1,0,29,164,20,167,1,0,20,164,252,167,50,183,1,0
  1982 00008A2C A7010014A4FCA732B7-
  1982 00008A35 0100               
  1983 00008A37 FCA432B4E7A7010048-          DB 252,164,50,180,231,167,1,0,72,75,252,160,18,176,50,176,13,67,7,177
  1983 00008A40 4BFCA012B032B00D43-
  1983 00008A49 07B1               
  1984 00008A4B 27B10D440AB32AB34C-          DB 39,177,13,68,10,179,42,179,76,75,252,166,18,182,50,182,23,83,1,0
  1984 00008A54 4BFCA612B632B61753-
  1984 00008A5D 0100               
  1985 00008A5F E7A4DEA70100DEA4E7-          DB 231,164,222,167,1,0,222,164,231,167,1,0,231,164,252,167,1,0,252,164
  1985 00008A68 A70100E7A4FCA70100-
  1985 00008A71 FCA4               
  1986 00008A73 14A733B7010014A433-          DB 20,167,51,183,1,0,20,164,51,180,29,167,1,0,253,160,15,176,47,176
  1986 00008A7C B41DA70100FDA00FB0-
  1986 00008A85 2FB0               
  1987 00008A87 034307B127B100440A-          DB 3,67,7,177,39,177,0,68,10,179,42,179,253,166,15,182,47,182,8,83
  1987 00008A90 B32AB3FDA60FB62FB6-
  1987 00008A99 0853               
  1988 00008A9B 01001DA414A7010014-          DB 1,0,29,164,20,167,1,0,20,164,252,167,50,183,1,0,252,164,50,180
  1988 00008AA4 A4FCA732B70100FCA4-
  1988 00008AAD 32B4               
  1989 00008AAF E7A70100E7A4DEA701-          DB 231,167,1,0,231,164,222,167,1,0,222,164,231,167,1,0,15,176,47,176
  1989 00008AB8 00DEA4E7A701000FB0-
  1989 00008AC1 2FB0               
  1990 00008AC3 0D430BB12BB10D440A-          DB 13,67,11,177,43,177,13,68,10,179,42,179,15,182,47,182,23,83,1,0
  1990 00008ACC B32AB30FB62FB61753-
  1990 00008AD5 0100               
  1991 00008AD7 E7A4FCA70100FCA414-          DB 231,164,252,167,1,0,252,164,20,167,51,183,1,0,20,164,51,180,29,167
  1991 00008AE0 A733B7010014A433B4-
  1991 00008AE9 1DA7               
  1992 00008AEB 01001DA414A7010014-          DB 1,0,29,164,20,167,1,0,20,164,252,167,50,183,1,0,64,75,94,160
  1992 00008AF4 A4FCA732B70100404B-
  1992 00008AFD 5EA0               
  1993 00008AFF 12B032B0034307B127-          DB 18,176,50,176,3,67,7,177,39,177,0,68,10,178,42,178,10,179,42,179
  1993 00008B08 B100440AB22AB20AB3-
  1993 00008B11 2AB3               
  1994 00008B13 0AB52AB55EA612B632-          DB 10,181,42,181,94,166,18,182,50,182,8,83,1,0,252,164,50,180,231,167
  1994 00008B1C B608530100FCA432B4-
  1994 00008B25 E7A7               
  1995 00008B27 0100E7A4DEA70100DE-          DB 1,0,231,164,222,167,1,0,222,164,231,167,1,0,231,164,252,167,1,0
  1995 00008B30 A4E7A70100E7A4FCA7-
  1995 00008B39 0100               
  1996 00008B3B FCA414A733B7010048-          DB 252,164,20,167,51,183,1,0,72,75,253,160,15,176,47,176,13,67,7,177
  1996 00008B44 4BFDA00FB02FB00D43-
  1996 00008B4D 07B1               
  1997 00008B4F 27B10D440AB32AB34C-          DB 39,177,13,68,10,179,42,179,76,75,253,166,15,182,47,182,23,83,1,0
  1997 00008B58 4BFDA60FB62FB61753-
  1997 00008B61 0100               
  1998 00008B63 14A433B41DA701001D-          DB 20,164,51,180,29,167,1,0,29,164,20,167,1,0,20,164,252,167,50,183
  1998 00008B6C A414A7010014A4FCA7-
  1998 00008B75 32B7               
  1999 00008B77 0100FCA432B4E7A701-          DB 1,0,252,164,50,180,231,167,1,0,231,164,222,167,1,0,15,176,47,176
  1999 00008B80 00E7A4DEA701000FB0-
  1999 00008B89 2FB0               
  2000 00008B8B 03430BB12BB100440A-          DB 3,67,11,177,43,177,0,68,10,179,42,179,15,182,47,182,8,83,1,0
  2000 00008B94 B32AB30FB62FB60853-
  2000 00008B9D 0100               
  2001 00008B9F DEA4E7A70100E7A4FC-          DB 222,164,231,167,1,0,231,164,252,167,1,0,252,164,20,167,51,183,1,0
  2001 00008BA8 A70100FCA414A733B7-
  2001 00008BB1 0100               
  2002 00008BB3 14A433B41DA701001D-          DB 20,164,51,180,29,167,1,0,29,164,20,167,1,0,94,160,18,176,50,176
  2002 00008BBC A414A701005EA012B0-
  2002 00008BC5 32B0               
  2003 00008BC7 0D4307B127B10D440A-          DB 13,67,7,177,39,177,13,68,10,179,42,179,94,166,18,182,50,182,23,83
  2003 00008BD0 B32AB35EA612B632B6-
  2003 00008BD9 1753               
  2004 00008BDB 010014A4FCA732B701-          DB 1,0,20,164,252,167,50,183,1,0,252,164,50,180,231,167,1,0,231,164
  2004 00008BE4 00FCA432B4E7A70100-
  2004 00008BED E7A4               
  2005 00008BEF DEA70100DEA4E7A701-          DB 222,167,1,0,222,164,231,167,1,0,231,164,252,167,1,0,64,75,168,160
  2005 00008BF8 00E7A4FCA70100404B-
  2005 00008C01 A8A0               
  2006 00008C03 12B032B003431CA10A-          DB 18,176,50,176,3,67,28,161,10,177,42,177,0,68,10,178,42,178,10,179
  2006 00008C0C B12AB100440AB22AB2-
  2006 00008C15 0AB3               
  2007 00008C17 2AB30AB52AB5A8A612-          DB 42,179,10,181,42,181,168,166,18,182,50,182,8,83,1,0,252,164,20,167
  2007 00008C20 B632B608530100FCA4-
  2007 00008C29 14A7               
  2008 00008C2B 33B7010014A433B41D-          DB 51,183,1,0,20,164,51,180,29,167,1,0,29,164,20,167,1,0,20,164
  2008 00008C34 A701001DA414A70100-
  2008 00008C3D 14A4               
  2009 00008C3F FCA732B70100FCA432-          DB 252,167,50,183,1,0,252,164,50,180,231,167,1,0,72,75,253,160,15,176
  2009 00008C48 B4E7A70100484BFDA0-
  2009 00008C51 0FB0               
  2010 00008C53 2FB00D43FDA10BB12B-          DB 47,176,13,67,253,161,11,177,43,177,13,68,10,179,42,179,76,75,253,166
  2010 00008C5C B10D440AB32AB34C4B-
  2010 00008C65 FDA6               
  2011 00008C67 0FB62FB617530100E7-          DB 15,182,47,182,23,83,1,0,231,164,222,167,1,0,222,164,231,167,1,0
  2011 00008C70 A4DEA70100DEA4E7A7-
  2011 00008C79 0100               
  2012 00008C7B E7A4FCA70100FCA414-          DB 231,164,252,167,1,0,252,164,20,167,51,183,1,0,20,164,51,180,29,167
  2012 00008C84 A733B7010014A433B4-
  2012 00008C8D 1DA7               
  2013 00008C8F 01000FB02FB003431C-          DB 1,0,15,176,47,176,3,67,28,161,10,177,42,177,0,68,10,179,42,179
  2013 00008C98 A10AB12AB100440AB3-
  2013 00008CA1 2AB3               
  2014 00008CA3 0FB62FB6085301001D-          DB 15,182,47,182,8,83,1,0,29,164,20,167,1,0,20,164,252,167,50,183
  2014 00008CAC A414A7010014A4FCA7-
  2014 00008CB5 32B7               
  2015 00008CB7 0100FCA432B4E7A701-          DB 1,0,252,164,50,180,231,167,1,0,231,164,222,167,1,0,222,164,231,167
  2015 00008CC0 00E7A4DEA70100DEA4-
  2015 00008CC9 E7A7               
  2016 00008CCB 0100A8A012B032B00D-          DB 1,0,168,160,18,176,50,176,13,67,10,177,42,177,13,68,10,179,42,179
  2016 00008CD4 430AB12AB10D440AB3-
  2016 00008CDD 2AB3               
  2017 00008CDF A8A612B632B6175301-          DB 168,166,18,182,50,182,23,83,1,0,231,164,252,167,1,0,252,164,20,167
  2017 00008CE8 00E7A4FCA70100FCA4-
  2017 00008CF1 14A7               
  2018 00008CF3 33B7010014A433B41D-          DB 51,183,1,0,20,164,51,180,29,167,1,0,29,164,20,167,1,0,20,164
  2018 00008CFC A701001DA414A70100-
  2018 00008D05 14A4               
  2019 00008D07 FCA732B70100404B3D-          DB 252,167,50,183,1,0,64,75,61,160,18,176,50,176,3,67,14,177,46,177
  2019 00008D10 A012B032B003430EB1-
  2019 00008D19 2EB1               
  2020 00008D1B 00440AB22AB20AB32A-          DB 0,68,10,178,42,178,10,179,42,179,10,181,42,181,61,166,18,182,50,182
  2020 00008D24 B30AB52AB53DA612B6-
  2020 00008D2D 32B6               
  2021 00008D2F 08530100FCA432B4E7-          DB 8,83,1,0,252,164,50,180,231,167,1,0,231,164,222,167,1,0,222,164
  2021 00008D38 A70100E7A4DEA70100-
  2021 00008D41 DEA4               
  2022 00008D43 E7A70100E7A4FCA701-          DB 231,167,1,0,231,164,252,167,1,0,252,164,20,167,51,183,1,0,72,75
  2022 00008D4C 00FCA414A733B70100-
  2022 00008D55 484B               
  2023 00008D57 FDA00FB02FB00D430A-          DB 253,160,15,176,47,176,13,67,10,177,42,177,13,68,10,179,42,179,76,75
  2023 00008D60 B12AB10D440AB32AB3-
  2023 00008D69 4C4B               
  2024 00008D6B FDA60FB62FB6175301-          DB 253,166,15,182,47,182,23,83,1,0,20,164,51,180,29,167,1,0,29,164
  2024 00008D74 0014A433B41DA70100-
  2024 00008D7D 1DA4               
  2025 00008D7F 14A7010014A4FCA732-          DB 20,167,1,0,20,164,252,167,50,183,1,0,252,164,50,180,231,167,1,0
  2025 00008D88 B70100FCA432B4E7A7-
  2025 00008D91 0100               
  2026 00008D93 E7A4DEA701005EA012-          DB 231,164,222,167,1,0,94,160,18,176,50,176,3,67,10,177,42,177,0,68
  2026 00008D9C B032B003430AB12AB1-
  2026 00008DA5 0044               
  2027 00008DA7 0AB22AB20AB32AB30A-          DB 10,178,42,178,10,179,42,179,10,181,42,181,94,166,18,182,50,182,8,83
  2027 00008DB0 B52AB55EA612B632B6-
  2027 00008DB9 0853               
  2028 00008DBB 0100DEA4E7A70100E7-          DB 1,0,222,164,231,167,1,0,231,164,252,167,1,0,252,164,20,167,51,183
  2028 00008DC4 A4FCA70100FCA414A7-
  2028 00008DCD 33B7               
  2029 00008DCF 010014A433B41DA701-          DB 1,0,20,164,51,180,29,167,1,0,29,164,20,167,1,0,61,160,18,176
  2029 00008DD8 001DA414A701003DA0-
  2029 00008DE1 12B0               
  2030 00008DE3 32B00D430EB12EB10D-          DB 50,176,13,67,14,177,46,177,13,68,10,179,42,179,61,166,18,182,50,182
  2030 00008DEC 440AB32AB33DA612B6-
  2030 00008DF5 32B6               
  2031 00008DF7 1753010014A4FCA732-          DB 23,83,1,0,20,164,252,167,50,183,1,0,252,164,50,180,231,167,1,0
  2031 00008E00 B70100FCA432B4E7A7-
  2031 00008E09 0100               
  2032 00008E0B E7A4DEA70100DEA4E7-          DB 231,164,222,167,1,0,222,164,231,167,1,0,231,164,252,167,1,0,64,75
  2032 00008E14 A70100E7A4FCA70100-
  2032 00008E1D 404B               
  2033 00008E1F FDA00FB02FB00343A7-          DB 253,160,15,176,47,176,3,67,167,161,10,177,42,177,0,68,10,178,42,178
  2033 00008E28 A10AB12AB100440AB2-
  2033 00008E31 2AB2               
  2034 00008E33 0AB32AB3FCA40AB52A-          DB 10,179,42,179,252,164,10,181,42,181,253,166,15,182,47,182,8,83,1,0
  2034 00008E3C B5FDA60FB62FB60853-
  2034 00008E45 0100               
  2035 00008E47 14A733B701001DA701-          DB 20,167,51,183,1,0,29,167,1,0,20,167,1,0,252,167,50,183,1,0
  2035 00008E50 0014A70100FCA732B7-
  2035 00008E59 0100               
  2036 00008E5B E7A70100484B28A013-          DB 231,167,1,0,72,75,40,160,19,176,51,176,13,67,208,161,10,177,42,177
  2036 00008E64 B033B00D43D0A10AB1-
  2036 00008E6D 2AB1               
  2037 00008E6F 0D440AB32AB34C4B28-          DB 13,68,10,179,42,179,76,75,40,166,19,182,51,182,23,83,1,0,222,167
  2037 00008E78 A613B633B617530100-
  2037 00008E81 DEA7               
  2038 00008E83 0100E7A70100FCA701-          DB 1,0,231,167,1,0,252,167,1,0,20,167,51,183,1,0,29,167,1,0
  2038 00008E8C 0014A733B701001DA7-
  2038 00008E95 0100               
  2039 00008E97 FDA00FB02FB00343A7-          DB 253,160,15,176,47,176,3,67,167,161,10,177,42,177,0,68,10,179,42,179
  2039 00008EA0 A10AB12AB100440AB3-
  2039 00008EA9 2AB3               
  2040 00008EAB FDA60FB62FB6085301-          DB 253,166,15,182,47,182,8,83,1,0,20,167,1,0,252,167,50,183,1,0
  2040 00008EB4 0014A70100FCA732B7-
  2040 00008EBD 0100               
  2041 00008EBF E7A70100DEA70100E7-          DB 231,167,1,0,222,167,1,0,231,167,1,0,15,176,47,176,13,67,10,177
  2041 00008EC8 A701000FB02FB00D43-
  2041 00008ED1 0AB1               
  2042 00008ED3 2AB10D440AB32AB30F-          DB 42,177,13,68,10,179,42,179,15,182,47,182,23,83,252,167,6,0,64,75
  2042 00008EDC B62FB61753FCA70600-
  2042 00008EE5 404B               
  2043 00008EE7 FCA012B032B00343A8-          DB 252,160,18,176,50,176,3,67,168,161,14,177,46,177,0,68,10,178,42,178
  2043 00008EF0 A10EB12EB100440AB2-
  2043 00008EF9 2AB2               
  2044 00008EFB 0AB32AB30AB52AB5FC-          DB 10,179,42,179,10,181,42,181,252,166,18,182,50,182,8,83,6,0,72,75
  2044 00008F04 A612B632B608530600-
  2044 00008F0D 484B               
  2045 00008F0F FDA00FB02FB00D43A7-          DB 253,160,15,176,47,176,13,67,167,161,10,177,42,177,13,68,10,179,42,179
  2045 00008F18 A10AB12AB10D440AB3-
  2045 00008F21 2AB3               
  2046 00008F23 4C4BFDA60FB62FB617-          DB 76,75,253,166,15,182,47,182,23,83,6,0,15,176,47,176,3,67,10,177
  2046 00008F2C 5306000FB02FB00343-
  2046 00008F35 0AB1               
  2047 00008F37 2AB100440AB32AB30F-          DB 42,177,0,68,10,179,42,179,15,182,47,182,8,83,6,0,252,160,18,176
  2047 00008F40 B62FB608530600FCA0-
  2047 00008F49 12B0               
  2048 00008F4B 32B00D43A8A10EB12E-          DB 50,176,13,67,168,161,14,177,46,177,13,68,10,179,42,179,252,166,18,182
  2048 00008F54 B10D440AB32AB3FCA6-
  2048 00008F5D 12B6               
  2049 00008F5F 32B617530600404B28-          DB 50,182,23,83,6,0,64,75,40,160,19,176,51,176,3,67,167,161,10,177
  2049 00008F68 A013B033B00343A7A1-
  2049 00008F71 0AB1               
  2050 00008F73 2AB100440AB22AB20A-          DB 42,177,0,68,10,178,42,178,10,179,42,179,10,181,42,181,40,166,19,182
  2050 00008F7C B32AB30AB52AB528A6-
  2050 00008F85 13B6               
  2051 00008F87 33B608530600484BFD-          DB 51,182,8,83,6,0,72,75,253,160,15,176,47,176,13,67,10,177,42,177
  2051 00008F90 A00FB02FB00D430AB1-
  2051 00008F99 2AB1               
  2052 00008F9B 0D440AB32AB34C4BFD-          DB 13,68,10,179,42,179,76,75,253,166,15,182,47,182,23,83,6,0,15,176
  2052 00008FA4 A60FB62FB617530600-
  2052 00008FAD 0FB0               
  2053 00008FAF 2FB00343A8A10EB12E-          DB 47,176,3,67,168,161,14,177,46,177,0,68,10,179,42,179,15,182,47,182
  2053 00008FB8 B100440AB32AB30FB6-
  2053 00008FC1 2FB6               
  2054 00008FC3 0853060028A013B033-          DB 8,83,6,0,40,160,19,176,51,176,13,67,167,161,10,177,42,177,13,68
  2054 00008FCC B00D43A7A10AB12AB1-
  2054 00008FD5 0D44               
  2055 00008FD7 0AB32AB328A613B633-          DB 10,179,42,179,40,166,19,182,51,182,23,83,6,0,64,75,168,160,18,176
  2055 00008FE0 B617530600404BA8A0-
  2055 00008FE9 12B0               
  2056 00008FEB 32B003430AB12AB100-          DB 50,176,3,67,10,177,42,177,0,68,10,178,42,178,10,179,42,179,10,181
  2056 00008FF4 440AB22AB20AB32AB3-
  2056 00008FFD 0AB5               
  2057 00008FFF 2AB5A8A612B632B608-          DB 42,181,168,166,18,182,50,182,8,83,6,0,72,75,253,160,15,176,47,176
  2057 00009008 530600484BFDA00FB0-
  2057 00009011 2FB0               
  2058 00009013 0D43A8A10EB12EB10D-          DB 13,67,168,161,14,177,46,177,13,68,10,179,42,179,76,75,253,166,15,182
  2058 0000901C 440AB32AB34C4BFDA6-
  2058 00009025 0FB6               
  2059 00009027 2FB617530700FCA012-          DB 47,182,23,83,7,0,252,160,18,176,50,176,3,67,167,161,10,177,42,177
  2059 00009030 B032B00343A7A10AB1-
  2059 00009039 2AB1               
  2060 0000903B 00440AB32AB3FCA612-          DB 0,68,10,179,42,179,252,166,18,182,50,182,8,83,6,0,168,160,18,176
  2060 00009044 B632B608530600A8A0-
  2060 0000904D 12B0               
  2061 0000904F 32B00D430AB12AB10D-          DB 50,176,13,67,10,177,42,177,13,68,10,179,42,179,168,166,18,182,50,182
  2061 00009058 440AB32AB3A8A612B6-
  2061 00009061 32B6               
  2062 00009063 17530600404BFDA00F-          DB 23,83,6,0,64,75,253,160,15,176,47,176,3,67,168,161,14,177,46,177
  2062 0000906C B02FB00343A8A10EB1-
  2062 00009075 2EB1               
  2063 00009077 00440AB22AB20AB32A-          DB 0,68,10,178,42,178,10,179,42,179,10,181,42,181,253,166,15,182,47,182
  2063 00009080 B30AB52AB5FDA60FB6-
  2063 00009089 2FB6               
  2064 0000908B 08530600484BFCA012-          DB 8,83,6,0,72,75,252,160,18,176,50,176,13,67,167,161,10,177,42,177
  2064 00009094 B032B00D43A7A10AB1-
  2064 0000909D 2AB1               
  2065 0000909F 0D440AB32AB34C4BFC-          DB 13,68,10,179,42,179,76,75,252,166,18,182,50,182,23,83,6,0,253,160
  2065 000090A8 A612B632B617530600-
  2065 000090B1 FDA0               
  2066 000090B3 0FB02FB003430AB12A-          DB 15,176,47,176,3,67,10,177,42,177,0,68,10,179,42,179,253,166,15,182
  2066 000090BC B100440AB32AB3FDA6-
  2066 000090C5 0FB6               
  2067 000090C7 2FB6085306000FB02F-          DB 47,182,8,83,6,0,15,176,47,176,13,67,168,161,14,177,46,177,13,68
  2067 000090D0 B00D43A8A10EB12EB1-
  2067 000090D9 0D44               
  2068 000090DB 0AB32AB30FB62FB617-          DB 10,179,42,179,15,182,47,182,23,83,6,0,64,75,94,160,18,176,50,176
  2068 000090E4 530600404B5EA012B0-
  2068 000090ED 32B0               
  2069 000090EF 0343A7A10AB12AB100-          DB 3,67,167,161,10,177,42,177,0,68,10,178,42,178,10,179,42,179,10,181
  2069 000090F8 440AB22AB20AB32AB3-
  2069 00009101 0AB5               
  2070 00009103 2AB55EA612B632B608-          DB 42,181,94,166,18,182,50,182,8,83,6,0,72,75,253,160,15,176,47,176
  2070 0000910C 530600484BFDA00FB0-
  2070 00009115 2FB0               
  2071 00009117 0D430AB12AB10D440A-          DB 13,67,10,177,42,177,13,68,10,179,42,179,76,75,253,166,15,182,47,182
  2071 00009120 B32AB34C4BFDA60FB6-
  2071 00009129 2FB6               
  2072 0000912B 175306000FB02FB003-          DB 23,83,6,0,15,176,47,176,3,67,168,161,14,177,46,177,0,68,10,179
  2072 00009134 43A8A10EB12EB10044-
  2072 0000913D 0AB3               
  2073 0000913F 2AB30FB62FB6085306-          DB 42,179,15,182,47,182,8,83,6,0,94,160,18,176,50,176,13,67,167,161
  2073 00009148 005EA012B032B00D43-
  2073 00009151 A7A1               
  2074 00009153 0AB12AB10D440AB32A-          DB 10,177,42,177,13,68,10,179,42,179,94,166,18,182,50,182,23,83,6,0
  2074 0000915C B35EA612B632B61753-
  2074 00009165 0600               
  2075 00009167 404BA8A012B032B003-          DB 64,75,168,160,18,176,50,176,3,67,208,161,10,177,42,177,0,68,10,178
  2075 00009170 43D0A10AB12AB10044-
  2075 00009179 0AB2               
  2076 0000917B 2AB20AB32AB30AB52A-          DB 42,178,10,179,42,179,10,181,42,181,168,166,18,182,50,182,8,83,7,0
  2076 00009184 B5A8A612B632B60853-
  2076 0000918D 0700               
  2077 0000918F 484BFDA00FB02FB00D-          DB 72,75,253,160,15,176,47,176,13,67,168,161,14,177,46,177,13,68,10,179
  2077 00009198 43A8A10EB12EB10D44-
  2077 000091A1 0AB3               
  2078 000091A3 2AB34C4BFDA60FB62F-          DB 42,179,76,75,253,166,15,182,47,182,23,83,7,0,15,176,47,176,3,67
  2078 000091AC B6175307000FB02FB0-
  2078 000091B5 0343               
  2079 000091B7 D0A10AB12AB100440A-          DB 208,161,10,177,42,177,0,68,10,179,42,179,15,182,47,182,8,83,7,0
  2079 000091C0 B32AB30FB62FB60853-
  2079 000091C9 0700               
  2080 000091CB A8A012B032B00D430A-          DB 168,160,18,176,50,176,13,67,10,177,42,177,13,68,10,179,42,179,168,166
  2080 000091D4 B12AB10D440AB32AB3-
  2080 000091DD A8A6               
  2081 000091DF 12B632B61753070040-          DB 18,182,50,182,23,83,7,0,64,75,61,160,18,176,50,176,3,67,14,177
  2081 000091E8 4B3DA012B032B00343-
  2081 000091F1 0EB1               
  2082 000091F3 2EB100440AB22AB20A-          DB 46,177,0,68,10,178,42,178,10,179,42,179,10,181,42,181,61,166,18,182
  2082 000091FC B32AB30AB52AB53DA6-
  2082 00009205 12B6               
  2083 00009207 32B608530800484BFD-          DB 50,182,8,83,8,0,72,75,253,160,15,176,47,176,13,67,10,177,42,177
  2083 00009210 A00FB02FB00D430AB1-
  2083 00009219 2AB1               
  2084 0000921B 0D440AB22AB20AB32A-          DB 13,68,10,178,42,178,10,179,42,179,76,75,10,181,42,181,253,166,15,182
  2084 00009224 B34C4B0AB52AB5FDA6-
  2084 0000922D 0FB6               
  2085 0000922F 2FB6175308005EA012-          DB 47,182,23,83,8,0,94,160,18,176,50,176,3,67,10,177,42,177,0,68
  2085 00009238 B032B003430AB12AB1-
  2085 00009241 0044               
  2086 00009243 0AB22AB20AB32AB30A-          DB 10,178,42,178,10,179,42,179,10,181,42,181,94,166,18,182,50,182,8,83
  2086 0000924C B52AB55EA612B632B6-
  2086 00009255 0853               
  2087 00009257 08003DA012B032B00D-          DB 8,0,61,160,18,176,50,176,13,67,14,177,46,177,13,68,10,178,42,178
  2087 00009260 430EB12EB10D440AB2-
  2087 00009269 2AB2               
  2088 0000926B 0AB32AB30AB52AB53D-          DB 10,179,42,179,10,181,42,181,61,166,18,182,50,182,23,83,8,0,64,75
  2088 00009274 A612B632B617530800-
  2088 0000927D 404B               
  2089 0000927F FDA00FB02FB00343FD-          DB 253,160,15,176,47,176,3,67,253,161,7,177,39,177,0,68,10,178,42,178
  2089 00009288 A107B127B100440AB2-
  2089 00009291 2AB2               
  2090 00009293 0AB32AB3A8A412B432-          DB 10,179,42,179,168,164,18,180,50,180,10,181,42,181,253,166,15,182,47,182
  2090 0000929C B40AB52AB5FDA60FB6-
  2090 000092A5 2FB6               
  2091 000092A7 0853A8A712B732B73F-          DB 8,83,168,167,18,183,50,183,63,84,18,184,50,184,8,0,72,75,40,160
  2091 000092B0 5412B832B80800484B-
  2091 000092B9 28A0               
  2092 000092BB 13B033B00D431CA10A-          DB 19,176,51,176,13,67,28,161,10,177,42,177,13,68,10,179,42,179,76,75
  2092 000092C4 B12AB10D440AB32AB3-
  2092 000092CD 4C4B               
  2093 000092CF 28A613B633B6175301-          DB 40,166,19,182,51,182,23,83,1,0,181,164,1,0,194,164,1,0,208,164
  2093 000092D8 00B5A40100C2A40100-
  2093 000092E1 D0A4               
  2094 000092E3 0100DEA40100EDA401-          DB 1,0,222,164,1,0,237,164,1,0,252,164,2,0,253,160,15,176,47,176
  2094 000092EC 00FCA40200FDA00FB0-
  2094 000092F5 2FB0               
  2095 000092F7 0343FDA107B127B100-          DB 3,67,253,161,7,177,39,177,0,68,10,179,42,179,253,166,15,182,47,182
  2095 00009300 440AB32AB3FDA60FB6-
  2095 00009309 2FB6               
  2096 0000930B 085308000FB02FB00D-          DB 8,83,8,0,15,176,47,176,13,67,7,177,39,177,13,68,10,179,42,179
  2096 00009314 4307B127B10D440AB3-
  2096 0000931D 2AB3               
  2097 0000931F 0FB62FB6175312B732-          DB 15,182,47,182,23,83,18,183,50,183,13,84,8,0,64,75,252,160,18,176
  2097 00009328 B70D540800404BFCA0-
  2097 00009331 12B0               
  2098 00009333 32B003430BB12BB100-          DB 50,176,3,67,11,177,43,177,0,68,10,178,42,178,10,179,42,179,10,181
  2098 0000933C 440AB22AB20AB32AB3-
  2098 00009345 0AB5               
  2099 00009347 2AB5FCA612B632B608-          DB 42,181,252,166,18,182,50,182,8,83,1,0,181,167,1,0,194,167,1,0
  2099 00009350 530100B5A70100C2A7-
  2099 00009359 0100               
  2100 0000935B D0A70100DEA70100ED-          DB 208,167,1,0,222,167,1,0,237,167,1,0,252,167,2,0,72,75,253,160
  2100 00009364 A70100FCA70200484B-
  2100 0000936D FDA0               
  2101 0000936F 0FB02FB00D4307B127-          DB 15,176,47,176,13,67,7,177,39,177,13,68,10,179,42,179,76,75,253,166
  2101 00009378 B10D440AB32AB34C4B-
  2101 00009381 FDA6               
  2102 00009383 0FB62FB6175308000F-          DB 15,182,47,182,23,83,8,0,15,176,47,176,3,67,7,177,39,177,0,68
  2102 0000938C B02FB0034307B127B1-
  2102 00009395 0044               
  2103 00009397 0AB32AB30FB62FB608-          DB 10,179,42,179,15,182,47,182,8,83,8,0,252,160,18,176,50,176,13,67
  2103 000093A0 530800FCA012B032B0-
  2103 000093A9 0D43               
  2104 000093AB 0BB12BB10D440AB32A-          DB 11,177,43,177,13,68,10,179,42,179,252,166,18,182,50,182,23,83,8,0
  2104 000093B4 B3FCA612B632B61753-
  2104 000093BD 0800               
  2105 000093BF 404B28A013B033B003-          DB 64,75,40,160,19,176,51,176,3,67,7,177,39,177,0,68,10,178,42,178
  2105 000093C8 4307B127B100440AB2-
  2105 000093D1 2AB2               
  2106 000093D3 0AB32AB30AB52AB528-          DB 10,179,42,179,10,181,42,181,40,166,19,182,51,182,8,83,8,0,72,75
  2106 000093DC A613B633B608530800-
  2106 000093E5 484B               
  2107 000093E7 FDA00FB02FB00D4307-          DB 253,160,15,176,47,176,13,67,7,177,39,177,13,68,10,179,42,179,76,75
  2107 000093F0 B127B10D440AB32AB3-
  2107 000093F9 4C4B               
  2108 000093FB FDA60FB62FB6175308-          DB 253,166,15,182,47,182,23,83,8,0,15,176,47,176,3,67,11,177,43,177
  2108 00009404 000FB02FB003430BB1-
  2108 0000940D 2BB1               
  2109 0000940F 00440AB32AB30FB62F-          DB 0,68,10,179,42,179,15,182,47,182,8,83,8,0,40,160,19,176,51,176
  2109 00009418 B60853080028A013B0-
  2109 00009421 33B0               
  2110 00009423 0D4307B127B10D440A-          DB 13,67,7,177,39,177,13,68,10,179,42,179,40,166,19,182,51,182,23,83
  2110 0000942C B32AB328A613B633B6-
  2110 00009435 1753               
  2111 00009437 0800404BA8A012B032-          DB 8,0,64,75,168,160,18,176,50,176,3,67,7,177,39,177,0,68,10,178
  2111 00009440 B0034307B127B10044-
  2111 00009449 0AB2               
  2112 0000944B 2AB20AB32AB30AB52A-          DB 42,178,10,179,42,179,10,181,42,181,168,166,18,182,50,182,8,83,2,0
  2112 00009454 B5A8A612B632B60853-
  2112 0000945D 0200               
  2113 0000945F E7A40100DEA40100E7-          DB 231,164,1,0,222,164,1,0,231,164,1,0,252,164,1,0,20,164,51,180
  2113 00009468 A40100FCA4010014A4-
  2113 00009471 33B4               
  2114 00009473 01001DA40100484BFD-          DB 1,0,29,164,1,0,72,75,253,160,15,176,47,176,13,67,11,177,43,177
  2114 0000947C A00FB02FB00D430BB1-
  2114 00009485 2BB1               
  2115 00009487 0D440AB32AB34C4BFD-          DB 13,68,10,179,42,179,76,75,253,166,15,182,47,182,23,83,1,0,20,164
  2115 00009490 A60FB62FB617530100-
  2115 00009499 14A4               
  2116 0000949B 0100FCA432B40100E7-          DB 1,0,252,164,50,180,1,0,231,164,1,0,222,164,1,0,231,164,1,0
  2116 000094A4 A40100DEA40100E7A4-
  2116 000094AD 0100               
  2117 000094AF FCA4010014A433B401-          DB 252,164,1,0,20,164,51,180,1,0,252,160,18,176,50,176,3,67,7,177
  2117 000094B8 00FCA012B032B00343-
  2117 000094C1 07B1               
  2118 000094C3 27B100440AB32AB3FC-          DB 39,177,0,68,10,179,42,179,252,166,18,182,50,182,8,83,1,0,29,164
  2118 000094CC A612B632B608530100-
  2118 000094D5 1DA4               
  2119 000094D7 010014A40100FCA432-          DB 1,0,20,164,1,0,252,164,50,180,1,0,231,164,1,0,222,164,1,0
  2119 000094E0 B40100E7A40100DEA4-
  2119 000094E9 0100               
  2120 000094EB E7A40100FCA40100A8-          DB 231,164,1,0,252,164,1,0,168,160,18,176,50,176,13,67,7,177,39,177
  2120 000094F4 A012B032B00D4307B1-
  2120 000094FD 27B1               
  2121 000094FF 0D440AB32AB3A8A612-          DB 13,68,10,179,42,179,168,166,18,182,50,182,23,83,1,0,20,164,51,180
  2121 00009508 B632B61753010014A4-
  2121 00009511 33B4               
  2122 00009513 01001DA4E7A7010014-          DB 1,0,29,164,231,167,1,0,20,164,222,167,1,0,252,164,50,180,231,167
  2122 0000951C A4DEA70100FCA432B4-
  2122 00009525 E7A7               
  2123 00009527 0100E7A4FCA70100DE-          DB 1,0,231,164,252,167,1,0,222,164,20,167,51,183,1,0,231,164,29,167
  2123 00009530 A414A733B70100E7A4-
  2123 00009539 1DA7               
  2124 0000953B 0100404BFDA00FB02F-          DB 1,0,64,75,253,160,15,176,47,176,3,67,11,177,43,177,0,68,10,178
  2124 00009544 B003430BB12BB10044-
  2124 0000954D 0AB2               
  2125 0000954F 2AB20AB32AB30AB52A-          DB 42,178,10,179,42,179,10,181,42,181,253,166,15,182,47,182,8,83,1,0
  2125 00009558 B5FDA60FB62FB60853-
  2125 00009561 0100               
  2126 00009563 FCA414A7010014A433-          DB 252,164,20,167,1,0,20,164,51,180,252,167,50,183,1,0,29,164,231,167
  2126 0000956C B4FCA732B701001DA4-
  2126 00009575 E7A7               
  2127 00009577 010014A4DEA70100FC-          DB 1,0,20,164,222,167,1,0,252,164,50,180,231,167,1,0,231,164,252,167
  2127 00009580 A432B4E7A70100E7A4-
  2127 00009589 FCA7               
  2128 0000958B 0100DEA414A733B701-          DB 1,0,222,164,20,167,51,183,1,0,72,75,252,160,18,176,50,176,13,67
  2128 00009594 00484BFCA012B032B0-
  2128 0000959D 0D43               
  2129 0000959F 07B127B10D440AB32A-          DB 7,177,39,177,13,68,10,179,42,179,76,75,252,166,18,182,50,182,23,83
  2129 000095A8 B34C4BFCA612B632B6-
  2129 000095B1 1753               
  2130 000095B3 0100E7A41DA70100FC-          DB 1,0,231,164,29,167,1,0,252,164,20,167,1,0,20,164,51,180,252,167
  2130 000095BC A414A7010014A433B4-
  2130 000095C5 FCA7               
  2131 000095C7 32B701001DA4E7A701-          DB 50,183,1,0,29,164,231,167,1,0,20,164,222,167,1,0,252,164,50,180
  2131 000095D0 0014A4DEA70100FCA4-
  2131 000095D9 32B4               
  2132 000095DB E7A70100E7A4FCA701-          DB 231,167,1,0,231,164,252,167,1,0,253,160,15,176,47,176,3,67,7,177
  2132 000095E4 00FDA00FB02FB00343-
  2132 000095ED 07B1               
  2133 000095EF 27B100440AB32AB3FD-          DB 39,177,0,68,10,179,42,179,253,166,15,182,47,182,8,83,1,0,222,164
  2133 000095F8 A60FB62FB608530100-
  2133 00009601 DEA4               
  2134 00009603 14A733B70100E7A41D-          DB 20,167,51,183,1,0,231,164,29,167,1,0,252,164,20,167,1,0,20,164
  2134 0000960C A70100FCA414A70100-
  2134 00009615 14A4               
  2135 00009617 33B4FCA732B701001D-          DB 51,180,252,167,50,183,1,0,29,164,231,167,1,0,20,164,222,167,1,0
  2135 00009620 A4E7A7010014A4DEA7-
  2135 00009629 0100               
  2136 0000962B FCA432B4E7A701000F-          DB 252,164,50,180,231,167,1,0,15,176,47,176,13,67,11,177,43,177,13,68
  2136 00009634 B02FB00D430BB12BB1-
  2136 0000963D 0D44               
  2137 0000963F 0AB32AB30FB62FB617-          DB 10,179,42,179,15,182,47,182,23,83,1,0,231,164,252,167,1,0,222,164
  2137 00009648 530100E7A4FCA70100-
  2137 00009651 DEA4               
  2138 00009653 14A733B70100E7A41D-          DB 20,167,51,183,1,0,231,164,29,167,1,0,252,164,20,167,1,0,20,164
  2138 0000965C A70100FCA414A70100-
  2138 00009665 14A4               
  2139 00009667 33B4FCA732B701001D-          DB 51,180,252,167,50,183,1,0,29,164,231,167,1,0,20,164,222,167,1,0
  2139 00009670 A4E7A7010014A4DEA7-
  2139 00009679 0100               
  2140 0000967B 404B5EA012B032B003-          DB 64,75,94,160,18,176,50,176,3,67,7,177,39,177,0,68,10,178,42,178
  2140 00009684 4307B127B100440AB2-
  2140 0000968D 2AB2               
  2141 0000968F 0AB32AB30AB52AB55E-          DB 10,179,42,179,10,181,42,181,94,166,18,182,50,182,8,83,1,0,252,164
  2141 00009698 A612B632B608530100-
  2141 000096A1 FCA4               
  2142 000096A3 32B4E7A70100E7A4FC-          DB 50,180,231,167,1,0,231,164,252,167,1,0,222,164,20,167,51,183,1,0
  2142 000096AC A70100DEA414A733B7-
  2142 000096B5 0100               
  2143 000096B7 E7A41DA70100FCA414-          DB 231,164,29,167,1,0,252,164,20,167,1,0,20,164,51,180,252,167,50,183
  2143 000096C0 A7010014A433B4FCA7-
  2143 000096C9 32B7               
  2144 000096CB 01001DA4E7A7010048-          DB 1,0,29,164,231,167,1,0,72,75,253,160,15,176,47,176,13,67,7,177
  2144 000096D4 4BFDA00FB02FB00D43-
  2144 000096DD 07B1               
  2145 000096DF 27B10D440AB32AB34C-          DB 39,177,13,68,10,179,42,179,76,75,253,166,15,182,47,182,23,83,1,0
  2145 000096E8 4BFDA60FB62FB61753-
  2145 000096F1 0100               
  2146 000096F3 14A4DEA70100FCA432-          DB 20,164,222,167,1,0,252,164,50,180,231,167,1,0,231,164,252,167,1,0
  2146 000096FC B4E7A70100E7A4FCA7-
  2146 00009705 0100               
  2147 00009707 DEA414A733B70100E7-          DB 222,164,20,167,51,183,1,0,231,164,29,167,1,0,252,164,20,167,1,0
  2147 00009710 A41DA70100FCA414A7-
  2147 00009719 0100               
  2148 0000971B 14A433B4FCA732B701-          DB 20,164,51,180,252,167,50,183,1,0,15,176,47,176,3,67,11,177,43,177
  2148 00009724 000FB02FB003430BB1-
  2148 0000972D 2BB1               
  2149 0000972F 00440AB32AB30FB62F-          DB 0,68,10,179,42,179,15,182,47,182,8,83,1,0,29,164,231,167,1,0
  2149 00009738 B6085301001DA4E7A7-
  2149 00009741 0100               
  2150 00009743 14A4DEA70100FCA432-          DB 20,164,222,167,1,0,252,164,50,180,231,167,1,0,231,164,252,167,1,0
  2150 0000974C B4E7A70100E7A4FCA7-
  2150 00009755 0100               
  2151 00009757 DEA414A733B70100E7-          DB 222,164,20,167,51,183,1,0,231,164,29,167,1,0,252,164,20,167,1,0
  2151 00009760 A41DA70100FCA414A7-
  2151 00009769 0100               
  2152 0000976B 5EA012B032B00D4307-          DB 94,160,18,176,50,176,13,67,7,177,39,177,13,68,10,179,42,179,94,166
  2152 00009774 B127B10D440AB32AB3-
  2152 0000977D 5EA6               
  2153 0000977F 12B632B61753010014-          DB 18,182,50,182,23,83,1,0,20,164,51,180,252,167,50,183,1,0,29,164
  2153 00009788 A433B4FCA732B70100-
  2153 00009791 1DA4               
  2154 00009793 E7A7010014A4DEA701-          DB 231,167,1,0,20,164,222,167,1,0,252,164,50,180,231,167,1,0,231,164
  2154 0000979C 00FCA432B4E7A70100-
  2154 000097A5 E7A4               
  2155 000097A7 FCA70100DEA414A733-          DB 252,167,1,0,222,164,20,167,51,183,1,0,231,164,29,167,1,0,64,75
  2155 000097B0 B70100E7A41DA70100-
  2155 000097B9 404B               
  2156 000097BB A8A012B032B003431C-          DB 168,160,18,176,50,176,3,67,28,161,10,177,42,177,0,68,10,178,42,178
  2156 000097C4 A10AB12AB100440AB2-
  2156 000097CD 2AB2               
  2157 000097CF 0AB32AB30AB52AB5A8-          DB 10,179,42,179,10,181,42,181,168,166,18,182,50,182,8,83,1,0,252,164
  2157 000097D8 A612B632B608530100-
  2157 000097E1 FCA4               
  2158 000097E3 14A7010014A433B4FC-          DB 20,167,1,0,20,164,51,180,252,167,50,183,1,0,29,164,231,167,1,0
  2158 000097EC A732B701001DA4E7A7-
  2158 000097F5 0100               
  2159 000097F7 14A4DEA70100FCA432-          DB 20,164,222,167,1,0,252,164,50,180,231,167,1,0,231,164,252,167,1,0
  2159 00009800 B4E7A70100E7A4FCA7-
  2159 00009809 0100               
  2160 0000980B DEA414A733B7010048-          DB 222,164,20,167,51,183,1,0,72,75,253,160,15,176,47,176,13,67,253,161
  2160 00009814 4BFDA00FB02FB00D43-
  2160 0000981D FDA1               
  2161 0000981F 0BB12BB10D440AB32A-          DB 11,177,43,177,13,68,10,179,42,179,76,75,253,166,15,182,47,182,23,83
  2161 00009828 B34C4BFDA60FB62FB6-
  2161 00009831 1753               
  2162 00009833 0100E7A41DA70100FC-          DB 1,0,231,164,29,167,1,0,252,164,20,167,1,0,20,164,51,180,252,167
  2162 0000983C A414A7010014A433B4-
  2162 00009845 FCA7               
  2163 00009847 32B701001DA4E7A701-          DB 50,183,1,0,29,164,231,167,1,0,20,164,222,167,1,0,252,164,50,180
  2163 00009850 0014A4DEA70100FCA4-
  2163 00009859 32B4               
  2164 0000985B E7A70100E7A4FCA701-          DB 231,167,1,0,231,164,252,167,1,0,15,176,47,176,3,67,28,161,10,177
  2164 00009864 000FB02FB003431CA1-
  2164 0000986D 0AB1               
  2165 0000986F 2AB100440AB32AB30F-          DB 42,177,0,68,10,179,42,179,15,182,47,182,8,83,1,0,222,164,20,167
  2165 00009878 B62FB608530100DEA4-
  2165 00009881 14A7               
  2166 00009883 33B70100E7A41DA701-          DB 51,183,1,0,231,164,29,167,1,0,252,164,20,167,1,0,20,164,51,180
  2166 0000988C 00FCA414A7010014A4-
  2166 00009895 33B4               
  2167 00009897 FCA732B701001DA4E7-          DB 252,167,50,183,1,0,29,164,231,167,1,0,20,164,222,167,1,0,252,164
  2167 000098A0 A7010014A4DEA70100-
  2167 000098A9 FCA4               
  2168 000098AB 32B4E7A70100A8A012-          DB 50,180,231,167,1,0,168,160,18,176,50,176,13,67,10,177,42,177,13,68
  2168 000098B4 B032B00D430AB12AB1-
  2168 000098BD 0D44               
  2169 000098BF 0AB32AB3A8A612B632-          DB 10,179,42,179,168,166,18,182,50,182,23,83,1,0,231,164,252,167,1,0
  2169 000098C8 B617530100E7A4FCA7-
  2169 000098D1 0100               
  2170 000098D3 DEA414A733B70100E7-          DB 222,164,20,167,51,183,1,0,231,164,29,167,2,0,20,164,51,180,252,167
  2170 000098DC A41DA7020014A433B4-
  2170 000098E5 FCA7               
  2171 000098E7 32B701001DA4E7A701-          DB 50,183,1,0,29,164,231,167,1,0,20,164,222,167,1,0,64,75,61,160
  2171 000098F0 0014A4DEA70100404B-
  2171 000098F9 3DA0               
  2172 000098FB 12B032B003430EB12E-          DB 18,176,50,176,3,67,14,177,46,177,0,68,10,178,42,178,10,179,42,179
  2172 00009904 B100440AB22AB20AB3-
  2172 0000990D 2AB3               
  2173 0000990F 0AB52AB53DA612B632-          DB 10,181,42,181,61,166,18,182,50,182,8,83,2,0,231,164,50,180,252,167
  2173 00009918 B608530200E7A432B4-
  2173 00009921 FCA7               
  2174 00009923 0200DEA414A733B701-          DB 2,0,222,164,20,167,51,183,1,0,252,164,2,0,20,164,51,180,252,167
  2174 0000992C 00FCA4020014A433B4-
  2174 00009935 FCA7               
  2175 00009937 32B701001DA4E7A701-          DB 50,183,1,0,29,164,231,167,1,0,72,75,253,160,15,176,47,176,13,67
  2175 00009940 00484BFDA00FB02FB0-
  2175 00009949 0D43               
  2176 0000994B 0AB12AB10D440AB32A-          DB 10,177,42,177,13,68,10,179,42,179,76,75,253,166,15,182,47,182,23,83
  2176 00009954 B34C4BFDA60FB62FB6-
  2176 0000995D 1753               
  2177 0000995F 010014A4DEA70100FC-          DB 1,0,20,164,222,167,1,0,252,164,50,180,231,167,1,0,231,164,252,167
  2177 00009968 A432B4E7A70100E7A4-
  2177 00009971 FCA7               
  2178 00009973 0100DEA414A733B701-          DB 1,0,222,164,20,167,51,183,1,0,231,164,29,167,1,0,252,164,20,167
  2178 0000997C 00E7A41DA70100FCA4-
  2178 00009985 14A7               
  2179 00009987 010014A433B4FCA732-          DB 1,0,20,164,51,180,252,167,50,183,1,0,94,160,18,176,50,176,3,67
  2179 00009990 B701005EA012B032B0-
  2179 00009999 0343               
  2180 0000999B 0AB12AB100440AB22A-          DB 10,177,42,177,0,68,10,178,42,178,10,179,42,179,10,181,42,181,94,166
  2180 000099A4 B20AB32AB30AB52AB5-
  2180 000099AD 5EA6               
  2181 000099AF 12B632B6085301001D-          DB 18,182,50,182,8,83,1,0,29,164,231,167,1,0,20,164,222,167,1,0
  2181 000099B8 A4E7A7010014A4DEA7-
  2181 000099C1 0100               
  2182 000099C3 FCA432B4E7A70100E7-          DB 252,164,50,180,231,167,1,0,231,164,252,167,1,0,222,164,20,167,51,183
  2182 000099CC A4FCA70100DEA414A7-
  2182 000099D5 33B7               
  2183 000099D7 0100E7A41DA70100FC-          DB 1,0,231,164,29,167,1,0,252,164,20,167,1,0,61,160,18,176,50,176
  2183 000099E0 A414A701003DA012B0-
  2183 000099E9 32B0               
  2184 000099EB 0D430EB12EB10D440A-          DB 13,67,14,177,46,177,13,68,10,179,42,179,61,166,18,182,50,182,23,83
  2184 000099F4 B32AB33DA612B632B6-
  2184 000099FD 1753               
  2185 000099FF 010014A433B4FCA732-          DB 1,0,20,164,51,180,252,167,50,183,1,0,29,164,231,167,1,0,20,164
  2185 00009A08 B701001DA4E7A70100-
  2185 00009A11 14A4               
  2186 00009A13 DEA70100FCA432B4E7-          DB 222,167,1,0,252,164,50,180,231,167,1,0,231,164,252,167,1,0,222,164
  2186 00009A1C A70100E7A4FCA70100-
  2186 00009A25 DEA4               
  2187 00009A27 14A733B70100E7A41D-          DB 20,167,51,183,1,0,231,164,29,167,1,0,64,75,253,160,15,176,47,176
  2187 00009A30 A70100404BFDA00FB0-
  2187 00009A39 2FB0               
  2188 00009A3B 0343A7A10AB12AB100-          DB 3,67,167,161,10,177,42,177,0,68,10,178,42,178,10,179,42,179,252,164
  2188 00009A44 440AB22AB20AB32AB3-
  2188 00009A4D FCA4               
  2189 00009A4F 0AB52AB5FDA60FB62F-          DB 10,181,42,181,253,166,15,182,47,182,8,83,1,0,20,167,1,0,252,167
  2189 00009A58 B60853010014A70100-
  2189 00009A61 FCA7               
  2190 00009A63 32B70100E7A70100DE-          DB 50,183,1,0,231,167,1,0,222,167,1,0,231,167,1,0,252,167,1,0
  2190 00009A6C A70100E7A70100FCA7-
  2190 00009A75 0100               
  2191 00009A77 14A733B70100484B28-          DB 20,167,51,183,1,0,72,75,40,160,19,176,51,176,13,67,208,161,10,177
  2191 00009A80 A013B033B00D43D0A1-
  2191 00009A89 0AB1               
  2192 00009A8B 2AB10D440AB32AB34C-          DB 42,177,13,68,10,179,42,179,76,75,40,166,19,182,51,182,23,83,1,0
  2192 00009A94 4B28A613B633B61753-
  2192 00009A9D 0100               
  2193 00009A9F 1DA7010014A70100FC-          DB 29,167,1,0,20,167,1,0,252,167,50,183,1,0,231,167,1,0,222,167
  2193 00009AA8 A732B70100E7A70100-
  2193 00009AB1 DEA7               
  2194 00009AB3 0100E7A70100FCA701-          DB 1,0,231,167,1,0,252,167,1,0,253,160,15,176,47,176,3,67,167,161
  2194 00009ABC 00FDA00FB02FB00343-
  2194 00009AC5 A7A1               
  2195 00009AC7 0AB12AB100440AB32A-          DB 10,177,42,177,0,68,10,179,42,179,253,166,15,182,47,182,8,83,1,0
  2195 00009AD0 B3FDA60FB62FB60853-
  2195 00009AD9 0100               
  2196 00009ADB 14A733B701001DA701-          DB 20,167,51,183,1,0,29,167,1,0,20,167,1,0,252,167,50,183,1,0
  2196 00009AE4 0014A70100FCA732B7-
  2196 00009AED 0100               
  2197 00009AEF E7A70100DEA70100E7-          DB 231,167,1,0,222,167,1,0,231,167,1,0,15,176,47,176,13,67,10,177
  2197 00009AF8 A701000FB02FB00D43-
  2197 00009B01 0AB1               
  2198 00009B03 2AB10D440AB32AB30F-          DB 42,177,13,68,10,179,42,179,15,182,47,182,23,83,252,167,8,0,64,75
  2198 00009B0C B62FB61753FCA70800-
  2198 00009B15 404B               
  2199 00009B17 FCA012B032B00343A8-          DB 252,160,18,176,50,176,3,67,168,161,14,177,46,177,0,68,10,178,42,178
  2199 00009B20 A10EB12EB100440AB2-
  2199 00009B29 2AB2               
  2200 00009B2B 0AB32AB30AB52AB5FC-          DB 10,179,42,179,10,181,42,181,252,166,18,182,50,182,8,83,8,0,72,75
  2200 00009B34 A612B632B608530800-
  2200 00009B3D 484B               
  2201 00009B3F FDA00FB02FB00D43A7-          DB 253,160,15,176,47,176,13,67,167,161,10,177,42,177,13,68,10,179,42,179
  2201 00009B48 A10AB12AB10D440AB3-
  2201 00009B51 2AB3               
  2202 00009B53 4C4BFDA60FB62FB617-          DB 76,75,253,166,15,182,47,182,23,83,8,0,15,176,47,176,3,67,10,177
  2202 00009B5C 5308000FB02FB00343-
  2202 00009B65 0AB1               
  2203 00009B67 2AB100440AB32AB30F-          DB 42,177,0,68,10,179,42,179,15,182,47,182,8,83,8,0,252,160,18,176
  2203 00009B70 B62FB608530800FCA0-
  2203 00009B79 12B0               
  2204 00009B7B 32B00D43A8A10EB12E-          DB 50,176,13,67,168,161,14,177,46,177,13,68,10,179,42,179,252,166,18,182
  2204 00009B84 B10D440AB32AB3FCA6-
  2204 00009B8D 12B6               
  2205 00009B8F 32B617530800404B28-          DB 50,182,23,83,8,0,64,75,40,160,19,176,51,176,3,67,167,161,10,177
  2205 00009B98 A013B033B00343A7A1-
  2205 00009BA1 0AB1               
  2206 00009BA3 2AB100440AB22AB20A-          DB 42,177,0,68,10,178,42,178,10,179,42,179,10,181,42,181,40,166,19,182
  2206 00009BAC B32AB30AB52AB528A6-
  2206 00009BB5 13B6               
  2207 00009BB7 33B608530800484BFD-          DB 51,182,8,83,8,0,72,75,253,160,15,176,47,176,13,67,10,177,42,177
  2207 00009BC0 A00FB02FB00D430AB1-
  2207 00009BC9 2AB1               
  2208 00009BCB 0D440AB32AB34C4BFD-          DB 13,68,10,179,42,179,76,75,253,166,15,182,47,182,23,83,8,0,15,176
  2208 00009BD4 A60FB62FB617530800-
  2208 00009BDD 0FB0               
  2209 00009BDF 2FB00343A8A10EB12E-          DB 47,176,3,67,168,161,14,177,46,177,0,68,10,179,42,179,15,182,47,182
  2209 00009BE8 B100440AB32AB30FB6-
  2209 00009BF1 2FB6               
  2210 00009BF3 0853080028A013B033-          DB 8,83,8,0,40,160,19,176,51,176,13,67,167,161,10,177,42,177,13,68
  2210 00009BFC B00D43A7A10AB12AB1-
  2210 00009C05 0D44               
  2211 00009C07 0AB32AB328A613B633-          DB 10,179,42,179,40,166,19,182,51,182,23,83,8,0,64,75,168,160,18,176
  2211 00009C10 B617530800404BA8A0-
  2211 00009C19 12B0               
  2212 00009C1B 32B003430AB12AB100-          DB 50,176,3,67,10,177,42,177,0,68,10,178,42,178,10,179,42,179,10,181
  2212 00009C24 440AB22AB20AB32AB3-
  2212 00009C2D 0AB5               
  2213 00009C2F 2AB5A8A612B632B608-          DB 42,181,168,166,18,182,50,182,8,83,8,0,72,75,253,160,15,176,47,176
  2213 00009C38 530800484BFDA00FB0-
  2213 00009C41 2FB0               
  2214 00009C43 0D43A8A10EB12EB10D-          DB 13,67,168,161,14,177,46,177,13,68,10,179,42,179,76,75,253,166,15,182
  2214 00009C4C 440AB32AB34C4BFDA6-
  2214 00009C55 0FB6               
  2215 00009C57 2FB617530800FCA012-          DB 47,182,23,83,8,0,252,160,18,176,50,176,3,67,167,161,10,177,42,177
  2215 00009C60 B032B00343A7A10AB1-
  2215 00009C69 2AB1               
  2216 00009C6B 00440AB32AB3FCA612-          DB 0,68,10,179,42,179,252,166,18,182,50,182,8,83,8,0,168,160,18,176
  2216 00009C74 B632B608530800A8A0-
  2216 00009C7D 12B0               
  2217 00009C7F 32B00D430AB12AB10D-          DB 50,176,13,67,10,177,42,177,13,68,10,179,42,179,168,166,18,182,50,182
  2217 00009C88 440AB32AB3A8A612B6-
  2217 00009C91 32B6               
  2218 00009C93 17530800404BFDA00F-          DB 23,83,8,0,64,75,253,160,15,176,47,176,3,67,168,161,14,177,46,177
  2218 00009C9C B02FB00343A8A10EB1-
  2218 00009CA5 2EB1               
  2219 00009CA7 00440AB22AB20AB32A-          DB 0,68,10,178,42,178,10,179,42,179,10,181,42,181,253,166,15,182,47,182
  2219 00009CB0 B30AB52AB5FDA60FB6-
  2219 00009CB9 2FB6               
  2220 00009CBB 08530800484BFCA012-          DB 8,83,8,0,72,75,252,160,18,176,50,176,13,67,167,161,10,177,42,177
  2220 00009CC4 B032B00D43A7A10AB1-
  2220 00009CCD 2AB1               
  2221 00009CCF 0D440AB32AB34C4BFC-          DB 13,68,10,179,42,179,76,75,252,166,18,182,50,182,23,83,8,0,253,160
  2221 00009CD8 A612B632B617530800-
  2221 00009CE1 FDA0               
  2222 00009CE3 0FB02FB003430AB12A-          DB 15,176,47,176,3,67,10,177,42,177,0,68,10,179,42,179,253,166,15,182
  2222 00009CEC B100440AB32AB3FDA6-
  2222 00009CF5 0FB6               
  2223 00009CF7 2FB6085308000FB02F-          DB 47,182,8,83,8,0,15,176,47,176,13,67,168,161,14,177,46,177,13,68
  2223 00009D00 B00D43A8A10EB12EB1-
  2223 00009D09 0D44               
  2224 00009D0B 0AB32AB30FB62FB617-          DB 10,179,42,179,15,182,47,182,23,83,8,0,64,75,94,160,18,176,50,176
  2224 00009D14 530800404B5EA012B0-
  2224 00009D1D 32B0               
  2225 00009D1F 0343A7A10AB12AB100-          DB 3,67,167,161,10,177,42,177,0,68,10,178,42,178,10,179,42,179,10,181
  2225 00009D28 440AB22AB20AB32AB3-
  2225 00009D31 0AB5               
  2226 00009D33 2AB55EA612B632B608-          DB 42,181,94,166,18,182,50,182,8,83,8,0,72,75,253,160,15,176,47,176
  2226 00009D3C 530800484BFDA00FB0-
  2226 00009D45 2FB0               
  2227 00009D47 0D430AB12AB10D440A-          DB 13,67,10,177,42,177,13,68,10,179,42,179,76,75,253,166,15,182,47,182
  2227 00009D50 B32AB34C4BFDA60FB6-
  2227 00009D59 2FB6               
  2228 00009D5B 175308000FB02FB003-          DB 23,83,8,0,15,176,47,176,3,67,168,161,14,177,46,177,0,68,10,179
  2228 00009D64 43A8A10EB12EB10044-
  2228 00009D6D 0AB3               
  2229 00009D6F 2AB30FB62FB6085308-          DB 42,179,15,182,47,182,8,83,8,0,94,160,18,176,50,176,13,67,167,161
  2229 00009D78 005EA012B032B00D43-
  2229 00009D81 A7A1               
  2230 00009D83 0AB12AB10D440AB32A-          DB 10,177,42,177,13,68,10,179,42,179,94,166,18,182,50,182,23,83,8,0
  2230 00009D8C B35EA612B632B61753-
  2230 00009D95 0800               
  2231 00009D97 404BA8A012B032B003-          DB 64,75,168,160,18,176,50,176,3,67,208,161,10,177,42,177,0,68,10,178
  2231 00009DA0 43D0A10AB12AB10044-
  2231 00009DA9 0AB2               
  2232 00009DAB 2AB20AB32AB30AB52A-          DB 42,178,10,179,42,179,10,181,42,181,168,166,18,182,50,182,8,83,8,0
  2232 00009DB4 B5A8A612B632B60853-
  2232 00009DBD 0800               
  2233 00009DBF 484BFDA00FB02FB00D-          DB 72,75,253,160,15,176,47,176,13,67,168,161,14,177,46,177,13,68,10,179
  2233 00009DC8 43A8A10EB12EB10D44-
  2233 00009DD1 0AB3               
  2234 00009DD3 2AB34C4BFDA60FB62F-          DB 42,179,76,75,253,166,15,182,47,182,23,83,8,0,15,176,47,176,3,67
  2234 00009DDC B6175308000FB02FB0-
  2234 00009DE5 0343               
  2235 00009DE7 D0A10AB12AB100440A-          DB 208,161,10,177,42,177,0,68,10,179,42,179,15,182,47,182,8,83,8,0
  2235 00009DF0 B32AB30FB62FB60853-
  2235 00009DF9 0800               
  2236 00009DFB A8A012B032B00D430A-          DB 168,160,18,176,50,176,13,67,10,177,42,177,13,68,10,179,42,179,168,166
  2236 00009E04 B12AB10D440AB32AB3-
  2236 00009E0D A8A6               
  2237 00009E0F 12B632B61753080040-          DB 18,182,50,182,23,83,8,0,64,75,61,160,18,176,50,176,3,67,14,177
  2237 00009E18 4B3DA012B032B00343-
  2237 00009E21 0EB1               
  2238 00009E23 2EB100440AB22AB20A-          DB 46,177,0,68,10,178,42,178,10,179,42,179,10,181,42,181,61,166,18,182
  2238 00009E2C B32AB30AB52AB53DA6-
  2238 00009E35 12B6               
  2239 00009E37 32B608530800484BFD-          DB 50,182,8,83,8,0,72,75,253,160,15,176,47,176,13,67,10,177,42,177
  2239 00009E40 A00FB02FB00D430AB1-
  2239 00009E49 2AB1               
  2240 00009E4B 0D440AB22AB20AB32A-          DB 13,68,10,178,42,178,10,179,42,179,76,75,10,181,42,181,253,166,15,182
  2240 00009E54 B34C4B0AB52AB5FDA6-
  2240 00009E5D 0FB6               
  2241 00009E5F 2FB6175308005EA012-          DB 47,182,23,83,8,0,94,160,18,176,50,176,3,67,10,177,42,177,0,68
  2241 00009E68 B032B003430AB12AB1-
  2241 00009E71 0044               
  2242 00009E73 0AB22AB20AB32AB30A-          DB 10,178,42,178,10,179,42,179,10,181,42,181,94,166,18,182,50,182,8,83
  2242 00009E7C B52AB55EA612B632B6-
  2242 00009E85 0853               
  2243 00009E87 08003DA012B032B00D-          DB 8,0,61,160,18,176,50,176,13,67,14,177,46,177,13,68,10,178,42,178
  2243 00009E90 430EB12EB10D440AB2-
  2243 00009E99 2AB2               
  2244 00009E9B 0AB32AB30AB52AB53D-          DB 10,179,42,179,10,181,42,181,61,166,18,182,50,182,23,83,8,0,8,66
  2244 00009EA4 A612B632B617530800-
  2244 00009EAD 0842               
  2245 00009EAF F4652682478502E204-          DB 244,101,38,130,71,133,2,226,4,194,0,40,8,72,0,75,248,104,244,107
  2245 00009EB8 C200280848004BF868-
  2245 00009EC1 F46B               
  2246 00009EC3 2688478B02E800EB04-          DB 38,136,71,139,2,232,0,235,4,195,8,74,0,77,244,109,38,138,71,141
  2246 00009ECC C3084A004DF46D268A-
  2246 00009ED5 478D               
  2247 00009ED7 02EA04C50031003408-          DB 2,234,4,197,0,49,0,52,8,81,0,84,248,113,244,116,38,145,71,148
  2247 00009EE0 510054F871F4742691-
  2247 00009EE9 4794               
  2248 00009EEB 02F100320035085200-          DB 2,241,0,50,0,53,8,82,0,85,248,114,244,117,38,146,71,149,2,242
  2248 00009EF4 55F872F47526924795-
  2248 00009EFD 02F2               
  2249 00009EFF FDA00FB02FB00343FD-          DB 253,160,15,176,47,176,3,67,253,161,7,177,39,177,0,68,253,162,19,178
  2249 00009F08 A107B127B10044FDA2-
  2249 00009F11 13B2               
  2250 00009F13 33B20845FDA313B333-          DB 51,178,8,69,253,163,19,179,51,179,63,75,141,164,15,180,47,180,4,76
  2250 00009F1C B33F4B8DA40FB42FB4-
  2250 00009F25 044C               
  2251 00009F27 FDA513B533B53F4DFD-          DB 253,165,19,181,51,181,63,77,253,166,19,182,51,182,63,83,253,167,19,183
  2251 00009F30 A613B633B63F53FDA7-
  2251 00009F39 13B7               
  2252 00009F3B 33B73F54FDA813B833-          DB 51,183,63,84,253,168,19,184,51,184,63,85,7,0,189,164,1,0,241,164
  2252 00009F44 B83F550700BDA40100-
  2252 00009F4D F1A4               
  2253 00009F4F 0100FDA41B000FB02F-          DB 1,0,253,164,27,0,15,176,47,176,8,67,7,177,39,177,8,68,19,178
  2253 00009F58 B0084307B127B10844-
  2253 00009F61 13B2               
  2254 00009F63 33B20D4525000FB02F-          DB 51,178,13,69,37,0,15,176,47,176,13,67,7,177,39,177,13,68,19,178
  2254 00009F6C B00D4307B127B10D44-
  2254 00009F75 13B2               
  2255 00009F77 33B217451A00F3A401-          DB 51,178,23,69,26,0,243,164,1,0,240,164,1,0,243,164,1,0,253,164
  2255 00009F80 00F0A40100F3A40100-
  2255 00009F89 FDA4               
  2256 00009F8B 020004A432B4010005-          DB 2,0,4,164,50,180,1,0,5,164,1,0,4,164,1,0,253,164,47,180
  2256 00009F94 A4010004A40100FDA4-
  2256 00009F9D 2FB4               
  2257 00009F9F 0100F3A40200F0A401-          DB 1,0,243,164,2,0,240,164,1,0,243,164,1,0,253,164,1,0,4,164
  2257 00009FA8 00F3A40100FDA40100-
  2257 00009FB1 04A4               
  2258 00009FB3 32B4010005A4020004-          DB 50,180,1,0,5,164,2,0,4,164,1,0,253,164,47,180,1,0,243,164
  2258 00009FBC A40100FDA42FB40100-
  2258 00009FC5 F3A4               
  2259 00009FC7 0100F0A40100F3A402-          DB 1,0,240,164,1,0,243,164,2,0,253,164,1,0,4,164,50,180,1,0
  2259 00009FD0 00FDA4010004A432B4-
  2259 00009FD9 0100               
  2260 00009FDB 05A4010004A40100FD-          DB 5,164,1,0,4,164,1,0,253,164,47,180,2,0,243,164,1,0,240,164
  2260 00009FE4 A42FB40200F3A40100-
  2260 00009FED F0A4               
  2261 00009FEF 0100F3A40100FDA401-          DB 1,0,243,164,1,0,253,164,1,0,4,164,50,180,2,0,5,164,1,0
  2261 00009FF8 0004A432B4020005A4-
  2261 0000A001 0100               
  2262 0000A003 04A40100FDA42FB401-          DB 4,164,1,0,253,164,47,180,1,0,243,164,1,0,240,164,2,0,243,164
  2262 0000A00C 00F3A40100F0A40200-
  2262 0000A015 F3A4               
  2263 0000A017 0100FDA4010004A432-          DB 1,0,253,164,1,0,4,164,50,180,1,0,5,164,1,0,4,164,2,0
  2263 0000A020 B4010005A4010004A4-
  2263 0000A029 0200               
  2264 0000A02B FDA42FB40100F3A401-          DB 253,164,47,180,1,0,243,164,1,0,240,164,1,0,243,164,1,0,253,164
  2264 0000A034 00F0A40100F3A40100-
  2264 0000A03D FDA4               
  2265 0000A03F 020004A432B4010005-          DB 2,0,4,164,50,180,1,0,5,164,1,0,4,164,1,0,253,164,47,180
  2265 0000A048 A4010004A40100FDA4-
  2265 0000A051 2FB4               
  2266 0000A053 0100F3A40200F0A401-          DB 1,0,243,164,2,0,240,164,1,0,243,164,1,0,253,164,1,0,4,164
  2266 0000A05C 00F3A40100FDA40100-
  2266 0000A065 04A4               
  2267 0000A067 32B4010005A4020004-          DB 50,180,1,0,5,164,2,0,4,164,1,0,253,164,47,180,1,0,243,164
  2267 0000A070 A40100FDA42FB40100-
  2267 0000A079 F3A4               
  2268 0000A07B 0100F0A40100F3A402-          DB 1,0,240,164,1,0,243,164,2,0,253,164,1,0,4,164,50,180,1,0
  2268 0000A084 00FDA4010004A432B4-
  2268 0000A08D 0100               
  2269 0000A08F 05A4010004A40100FD-          DB 5,164,1,0,4,164,1,0,253,164,47,180,2,0,243,164,1,0,240,164
  2269 0000A098 A42FB40200F3A40100-
  2269 0000A0A1 F0A4               
  2270 0000A0A3 0100F3A40100FDA401-          DB 1,0,243,164,1,0,253,164,1,0,4,164,50,180,2,0,5,164,1,0
  2270 0000A0AC 0004A432B4020005A4-
  2270 0000A0B5 0100               
  2271 0000A0B7 04A40100FDA42FB401-          DB 4,164,1,0,253,164,47,180,1,0,243,164,1,0,240,164,2,0,243,164
  2271 0000A0C0 00F3A40100F0A40200-
  2271 0000A0C9 F3A4               
  2272 0000A0CB 0100FDA4010004A432-          DB 1,0,253,164,1,0,4,164,50,180,1,0,5,164,1,0,4,164,2,0
  2272 0000A0D4 B4010005A4010004A4-
  2272 0000A0DD 0200               
  2273 0000A0DF FDA42FB40100F3A401-          DB 253,164,47,180,1,0,243,164,1,0,240,164,1,0,243,164,1,0,253,164
  2273 0000A0E8 00F0A40100F3A40100-
  2273 0000A0F1 FDA4               
  2274 0000A0F3 020004A432B4010005-          DB 2,0,4,164,50,180,1,0,5,164,1,0,4,164,1,0,253,164,47,180
  2274 0000A0FC A4010004A40100FDA4-
  2274 0000A105 2FB4               
  2275 0000A107 0100F3A40200F0A401-          DB 1,0,243,164,2,0,240,164,1,0,243,164,1,0,253,164,1,0,4,164
  2275 0000A110 00F3A40100FDA40100-
  2275 0000A119 04A4               
  2276 0000A11B 32B4010005A4020004-          DB 50,180,1,0,5,164,2,0,4,164,1,0,253,164,47,180,1,0,243,164
  2276 0000A124 A40100FDA42FB40100-
  2276 0000A12D F3A4               
  2277 0000A12F 0100F0A40100F3A402-          DB 1,0,240,164,1,0,243,164,2,0,253,164,1,0,4,164,50,180,1,0
  2277 0000A138 00FDA4010004A432B4-
  2277 0000A141 0100               
  2278 0000A143 05A4010004A40100FD-          DB 5,164,1,0,4,164,1,0,253,164,47,180,2,0,243,164,1,0,240,164
  2278 0000A14C A42FB40200F3A40100-
  2278 0000A155 F0A4               
  2279 0000A157 0100F3A40100FDA401-          DB 1,0,243,164,1,0,253,164,1,0,4,164,50,180,2,0,5,164,1,0
  2279 0000A160 0004A432B4020005A4-
  2279 0000A169 0100               
  2280 0000A16B 04A40100FDA42FB401-          DB 4,164,1,0,253,164,47,180,1,0,243,164,1,0,240,164,2,0,243,164
  2280 0000A174 00F3A40100F0A40200-
  2280 0000A17D F3A4               
  2281 0000A17F 0100FDA4010004A432-          DB 1,0,253,164,1,0,4,164,50,180,1,0,5,164,1,0,4,164,2,0
  2281 0000A188 B4010005A4010004A4-
  2281 0000A191 0200               
  2282 0000A193 FDA42FB40100F3A401-          DB 253,164,47,180,1,0,243,164,1,0,240,164,1,0,243,164,1,0,253,164
  2282 0000A19C 00F0A40100F3A40100-
  2282 0000A1A5 FDA4               
  2283 0000A1A7 020004A432B4010005-          DB 2,0,4,164,50,180,1,0,5,164,1,0,4,164,1,0,253,164,47,180
  2283 0000A1B0 A4010004A40100FDA4-
  2283 0000A1B9 2FB4               
  2284 0000A1BB 0100F3A40200F0A401-          DB 1,0,243,164,2,0,240,164,1,0,243,164,1,0,253,164,1,0,4,164
  2284 0000A1C4 00F3A40100FDA40100-
  2284 0000A1CD 04A4               
  2285 0000A1CF 32B4010005A4020004-          DB 50,180,1,0,5,164,2,0,4,164,1,0,253,164,47,180,1,0,243,164
  2285 0000A1D8 A40100FDA42FB40100-
  2285 0000A1E1 F3A4               
  2286 0000A1E3 0100F0A40100F3A402-          DB 1,0,240,164,1,0,243,164,2,0,253,164,1,0,4,164,50,180,1,0
  2286 0000A1EC 00FDA4010004A432B4-
  2286 0000A1F5 0100               
  2287 0000A1F7 05A4010004A40100FD-          DB 5,164,1,0,4,164,1,0,253,164,47,180,2,0,243,164,1,0,240,164
  2287 0000A200 A42FB40200F3A40100-
  2287 0000A209 F0A4               
  2288 0000A20B 0100F3A40100FDA401-          DB 1,0,243,164,1,0,253,164,1,0,4,164,50,180,2,0,5,164,1,0
  2288 0000A214 0004A432B4020005A4-
  2288 0000A21D 0100               
  2289 0000A21F 04A40100FDA42FB401-          DB 4,164,1,0,253,164,47,180,1,0,243,164,1,0,240,164,2,0,243,164
  2289 0000A228 00F3A40100F0A40200-
  2289 0000A231 F3A4               
  2290 0000A233 0100FDA4010004A432-          DB 1,0,253,164,1,0,4,164,50,180,1,0,5,164,1,0,4,164,1,0
  2290 0000A23C B4010005A4010004A4-
  2290 0000A245 0100               
  2291 0000A247 FDA42FB43000502940-          DB 253,164,47,180,48,0,80,41,64,44,0,73,0,76,242,105,246,108,82,137
  2291 0000A250 2C0049004CF269F66C-
  2291 0000A259 5289               
  2292 0000A25B 168C03E90EC4542AD0-          DB 22,140,3,233,14,196,84,42,208,45,0,74,2,77,243,106,245,109,255,138
  2292 0000A264 2D004A024DF36AF56D-
  2292 0000A26D FF8A               
  2293 0000A26F 7F8D00                       DB 127,141,0
  2294                                  
  2295                                  ;;;;
  2296                                  ; EOF          
